
slip:     file format elf64-x86-64


Disassembly of section .init:

0000000000003000 <_init>:
    3000:	f3 0f 1e fa          	endbr64
    3004:	48 83 ec 08          	sub    $0x8,%rsp
    3008:	48 8b 05 c9 cf 01 00 	mov    0x1cfc9(%rip),%rax        # 1ffd8 <__gmon_start__@Base>
    300f:	48 85 c0             	test   %rax,%rax
    3012:	74 02                	je     3016 <_init+0x16>
    3014:	ff d0                	call   *%rax
    3016:	48 83 c4 08          	add    $0x8,%rsp
    301a:	c3                   	ret

Disassembly of section .plt:

0000000000003020 <free@plt-0x10>:
    3020:	ff 35 e2 cf 01 00    	push   0x1cfe2(%rip)        # 20008 <_GLOBAL_OFFSET_TABLE_+0x8>
    3026:	ff 25 e4 cf 01 00    	jmp    *0x1cfe4(%rip)        # 20010 <_GLOBAL_OFFSET_TABLE_+0x10>
    302c:	0f 1f 40 00          	nopl   0x0(%rax)

0000000000003030 <free@plt>:
    3030:	ff 25 e2 cf 01 00    	jmp    *0x1cfe2(%rip)        # 20018 <free@GLIBC_2.2.5>
    3036:	68 00 00 00 00       	push   $0x0
    303b:	e9 e0 ff ff ff       	jmp    3020 <_init+0x20>

0000000000003040 <__errno_location@plt>:
    3040:	ff 25 da cf 01 00    	jmp    *0x1cfda(%rip)        # 20020 <__errno_location@GLIBC_2.2.5>
    3046:	68 01 00 00 00       	push   $0x1
    304b:	e9 d0 ff ff ff       	jmp    3020 <_init+0x20>

0000000000003050 <strncpy@plt>:
    3050:	ff 25 d2 cf 01 00    	jmp    *0x1cfd2(%rip)        # 20028 <strncpy@GLIBC_2.2.5>
    3056:	68 02 00 00 00       	push   $0x2
    305b:	e9 c0 ff ff ff       	jmp    3020 <_init+0x20>

0000000000003060 <strcpy@plt>:
    3060:	ff 25 ca cf 01 00    	jmp    *0x1cfca(%rip)        # 20030 <strcpy@GLIBC_2.2.5>
    3066:	68 03 00 00 00       	push   $0x3
    306b:	e9 b0 ff ff ff       	jmp    3020 <_init+0x20>

0000000000003070 <ferror@plt>:
    3070:	ff 25 c2 cf 01 00    	jmp    *0x1cfc2(%rip)        # 20038 <ferror@GLIBC_2.2.5>
    3076:	68 04 00 00 00       	push   $0x4
    307b:	e9 a0 ff ff ff       	jmp    3020 <_init+0x20>

0000000000003080 <isatty@plt>:
    3080:	ff 25 ba cf 01 00    	jmp    *0x1cfba(%rip)        # 20040 <isatty@GLIBC_2.2.5>
    3086:	68 05 00 00 00       	push   $0x5
    308b:	e9 90 ff ff ff       	jmp    3020 <_init+0x20>

0000000000003090 <fread@plt>:
    3090:	ff 25 b2 cf 01 00    	jmp    *0x1cfb2(%rip)        # 20048 <fread@GLIBC_2.2.5>
    3096:	68 06 00 00 00       	push   $0x6
    309b:	e9 80 ff ff ff       	jmp    3020 <_init+0x20>

00000000000030a0 <atof@plt>:
    30a0:	ff 25 aa cf 01 00    	jmp    *0x1cfaa(%rip)        # 20050 <atof@GLIBC_2.2.5>
    30a6:	68 07 00 00 00       	push   $0x7
    30ab:	e9 70 ff ff ff       	jmp    3020 <_init+0x20>

00000000000030b0 <fclose@plt>:
    30b0:	ff 25 a2 cf 01 00    	jmp    *0x1cfa2(%rip)        # 20058 <fclose@GLIBC_2.2.5>
    30b6:	68 08 00 00 00       	push   $0x8
    30bb:	e9 60 ff ff ff       	jmp    3020 <_init+0x20>

00000000000030c0 <strlen@plt>:
    30c0:	ff 25 9a cf 01 00    	jmp    *0x1cf9a(%rip)        # 20060 <strlen@GLIBC_2.2.5>
    30c6:	68 09 00 00 00       	push   $0x9
    30cb:	e9 50 ff ff ff       	jmp    3020 <_init+0x20>

00000000000030d0 <printf@plt>:
    30d0:	ff 25 92 cf 01 00    	jmp    *0x1cf92(%rip)        # 20068 <printf@GLIBC_2.2.5>
    30d6:	68 0a 00 00 00       	push   $0xa
    30db:	e9 40 ff ff ff       	jmp    3020 <_init+0x20>

00000000000030e0 <strrchr@plt>:
    30e0:	ff 25 8a cf 01 00    	jmp    *0x1cf8a(%rip)        # 20070 <strrchr@GLIBC_2.2.5>
    30e6:	68 0b 00 00 00       	push   $0xb
    30eb:	e9 30 ff ff ff       	jmp    3020 <_init+0x20>

00000000000030f0 <__assert_fail@plt>:
    30f0:	ff 25 82 cf 01 00    	jmp    *0x1cf82(%rip)        # 20078 <__assert_fail@GLIBC_2.2.5>
    30f6:	68 0c 00 00 00       	push   $0xc
    30fb:	e9 20 ff ff ff       	jmp    3020 <_init+0x20>

0000000000003100 <memset@plt>:
    3100:	ff 25 7a cf 01 00    	jmp    *0x1cf7a(%rip)        # 20080 <memset@GLIBC_2.2.5>
    3106:	68 0d 00 00 00       	push   $0xd
    310b:	e9 10 ff ff ff       	jmp    3020 <_init+0x20>

0000000000003110 <calloc@plt>:
    3110:	ff 25 72 cf 01 00    	jmp    *0x1cf72(%rip)        # 20088 <calloc@GLIBC_2.2.5>
    3116:	68 0e 00 00 00       	push   $0xe
    311b:	e9 00 ff ff ff       	jmp    3020 <_init+0x20>

0000000000003120 <strcmp@plt>:
    3120:	ff 25 6a cf 01 00    	jmp    *0x1cf6a(%rip)        # 20090 <strcmp@GLIBC_2.2.5>
    3126:	68 0f 00 00 00       	push   $0xf
    312b:	e9 f0 fe ff ff       	jmp    3020 <_init+0x20>

0000000000003130 <fprintf@plt>:
    3130:	ff 25 62 cf 01 00    	jmp    *0x1cf62(%rip)        # 20098 <fprintf@GLIBC_2.2.5>
    3136:	68 10 00 00 00       	push   $0x10
    313b:	e9 e0 fe ff ff       	jmp    3020 <_init+0x20>

0000000000003140 <ftell@plt>:
    3140:	ff 25 5a cf 01 00    	jmp    *0x1cf5a(%rip)        # 200a0 <ftell@GLIBC_2.2.5>
    3146:	68 11 00 00 00       	push   $0x11
    314b:	e9 d0 fe ff ff       	jmp    3020 <_init+0x20>

0000000000003150 <strtol@plt>:
    3150:	ff 25 52 cf 01 00    	jmp    *0x1cf52(%rip)        # 200a8 <strtol@GLIBC_2.2.5>
    3156:	68 12 00 00 00       	push   $0x12
    315b:	e9 c0 fe ff ff       	jmp    3020 <_init+0x20>

0000000000003160 <clearerr@plt>:
    3160:	ff 25 4a cf 01 00    	jmp    *0x1cf4a(%rip)        # 200b0 <clearerr@GLIBC_2.2.5>
    3166:	68 13 00 00 00       	push   $0x13
    316b:	e9 b0 fe ff ff       	jmp    3020 <_init+0x20>

0000000000003170 <memcpy@plt>:
    3170:	ff 25 42 cf 01 00    	jmp    *0x1cf42(%rip)        # 200b8 <memcpy@GLIBC_2.14>
    3176:	68 14 00 00 00       	push   $0x14
    317b:	e9 a0 fe ff ff       	jmp    3020 <_init+0x20>

0000000000003180 <fileno@plt>:
    3180:	ff 25 3a cf 01 00    	jmp    *0x1cf3a(%rip)        # 200c0 <fileno@GLIBC_2.2.5>
    3186:	68 15 00 00 00       	push   $0x15
    318b:	e9 90 fe ff ff       	jmp    3020 <_init+0x20>

0000000000003190 <malloc@plt>:
    3190:	ff 25 32 cf 01 00    	jmp    *0x1cf32(%rip)        # 200c8 <malloc@GLIBC_2.2.5>
    3196:	68 16 00 00 00       	push   $0x16
    319b:	e9 80 fe ff ff       	jmp    3020 <_init+0x20>

00000000000031a0 <fseek@plt>:
    31a0:	ff 25 2a cf 01 00    	jmp    *0x1cf2a(%rip)        # 200d0 <fseek@GLIBC_2.2.5>
    31a6:	68 17 00 00 00       	push   $0x17
    31ab:	e9 70 fe ff ff       	jmp    3020 <_init+0x20>

00000000000031b0 <realloc@plt>:
    31b0:	ff 25 22 cf 01 00    	jmp    *0x1cf22(%rip)        # 200d8 <realloc@GLIBC_2.2.5>
    31b6:	68 18 00 00 00       	push   $0x18
    31bb:	e9 60 fe ff ff       	jmp    3020 <_init+0x20>

00000000000031c0 <fopen@plt>:
    31c0:	ff 25 1a cf 01 00    	jmp    *0x1cf1a(%rip)        # 200e0 <fopen@GLIBC_2.2.5>
    31c6:	68 19 00 00 00       	push   $0x19
    31cb:	e9 50 fe ff ff       	jmp    3020 <_init+0x20>

00000000000031d0 <getopt@plt>:
    31d0:	ff 25 12 cf 01 00    	jmp    *0x1cf12(%rip)        # 200e8 <getopt@GLIBC_2.2.5>
    31d6:	68 1a 00 00 00       	push   $0x1a
    31db:	e9 40 fe ff ff       	jmp    3020 <_init+0x20>

00000000000031e0 <sprintf@plt>:
    31e0:	ff 25 0a cf 01 00    	jmp    *0x1cf0a(%rip)        # 200f0 <sprintf@GLIBC_2.2.5>
    31e6:	68 1b 00 00 00       	push   $0x1b
    31eb:	e9 30 fe ff ff       	jmp    3020 <_init+0x20>

00000000000031f0 <exit@plt>:
    31f0:	ff 25 02 cf 01 00    	jmp    *0x1cf02(%rip)        # 200f8 <exit@GLIBC_2.2.5>
    31f6:	68 1c 00 00 00       	push   $0x1c
    31fb:	e9 20 fe ff ff       	jmp    3020 <_init+0x20>

0000000000003200 <fwrite@plt>:
    3200:	ff 25 fa ce 01 00    	jmp    *0x1cefa(%rip)        # 20100 <fwrite@GLIBC_2.2.5>
    3206:	68 1d 00 00 00       	push   $0x1d
    320b:	e9 10 fe ff ff       	jmp    3020 <_init+0x20>

0000000000003210 <aligned_alloc@plt>:
    3210:	ff 25 f2 ce 01 00    	jmp    *0x1cef2(%rip)        # 20108 <aligned_alloc@GLIBC_2.16>
    3216:	68 1e 00 00 00       	push   $0x1e
    321b:	e9 00 fe ff ff       	jmp    3020 <_init+0x20>

0000000000003220 <getc@plt>:
    3220:	ff 25 ea ce 01 00    	jmp    *0x1ceea(%rip)        # 20110 <getc@GLIBC_2.2.5>
    3226:	68 1f 00 00 00       	push   $0x1f
    322b:	e9 f0 fd ff ff       	jmp    3020 <_init+0x20>

Disassembly of section .plt.got:

0000000000003230 <__cxa_finalize@plt>:
    3230:	ff 25 b2 cd 01 00    	jmp    *0x1cdb2(%rip)        # 1ffe8 <__cxa_finalize@GLIBC_2.2.5>
    3236:	66 90                	xchg   %ax,%ax

Disassembly of section .text:

0000000000003240 <_start>:
    3240:	f3 0f 1e fa          	endbr64
    3244:	31 ed                	xor    %ebp,%ebp
    3246:	49 89 d1             	mov    %rdx,%r9
    3249:	5e                   	pop    %rsi
    324a:	48 89 e2             	mov    %rsp,%rdx
    324d:	48 83 e4 f0          	and    $0xfffffffffffffff0,%rsp
    3251:	50                   	push   %rax
    3252:	54                   	push   %rsp
    3253:	45 31 c0             	xor    %r8d,%r8d
    3256:	31 c9                	xor    %ecx,%ecx
    3258:	48 8d 3d d1 00 00 00 	lea    0xd1(%rip),%rdi        # 3330 <main>
    325f:	ff 15 53 cd 01 00    	call   *0x1cd53(%rip)        # 1ffb8 <__libc_start_main@GLIBC_2.34>
    3265:	f4                   	hlt
    3266:	66 2e 0f 1f 84 00 00 	cs nopw 0x0(%rax,%rax,1)
    326d:	00 00 00 

0000000000003270 <deregister_tm_clones>:
    3270:	48 8d 3d 99 d1 01 00 	lea    0x1d199(%rip),%rdi        # 20410 <__TMC_END__>
    3277:	48 8d 05 92 d1 01 00 	lea    0x1d192(%rip),%rax        # 20410 <__TMC_END__>
    327e:	48 39 f8             	cmp    %rdi,%rax
    3281:	74 15                	je     3298 <deregister_tm_clones+0x28>
    3283:	48 8b 05 36 cd 01 00 	mov    0x1cd36(%rip),%rax        # 1ffc0 <_ITM_deregisterTMCloneTable@Base>
    328a:	48 85 c0             	test   %rax,%rax
    328d:	74 09                	je     3298 <deregister_tm_clones+0x28>
    328f:	ff e0                	jmp    *%rax
    3291:	0f 1f 80 00 00 00 00 	nopl   0x0(%rax)
    3298:	c3                   	ret
    3299:	0f 1f 80 00 00 00 00 	nopl   0x0(%rax)

00000000000032a0 <register_tm_clones>:
    32a0:	48 8d 3d 69 d1 01 00 	lea    0x1d169(%rip),%rdi        # 20410 <__TMC_END__>
    32a7:	48 8d 35 62 d1 01 00 	lea    0x1d162(%rip),%rsi        # 20410 <__TMC_END__>
    32ae:	48 29 fe             	sub    %rdi,%rsi
    32b1:	48 89 f0             	mov    %rsi,%rax
    32b4:	48 c1 ee 3f          	shr    $0x3f,%rsi
    32b8:	48 c1 f8 03          	sar    $0x3,%rax
    32bc:	48 01 c6             	add    %rax,%rsi
    32bf:	48 d1 fe             	sar    $1,%rsi
    32c2:	74 14                	je     32d8 <register_tm_clones+0x38>
    32c4:	48 8b 05 15 cd 01 00 	mov    0x1cd15(%rip),%rax        # 1ffe0 <_ITM_registerTMCloneTable@Base>
    32cb:	48 85 c0             	test   %rax,%rax
    32ce:	74 08                	je     32d8 <register_tm_clones+0x38>
    32d0:	ff e0                	jmp    *%rax
    32d2:	66 0f 1f 44 00 00    	nopw   0x0(%rax,%rax,1)
    32d8:	c3                   	ret
    32d9:	0f 1f 80 00 00 00 00 	nopl   0x0(%rax)

00000000000032e0 <__do_global_dtors_aux>:
    32e0:	f3 0f 1e fa          	endbr64
    32e4:	80 3d 25 d1 01 00 00 	cmpb   $0x0,0x1d125(%rip)        # 20410 <__TMC_END__>
    32eb:	75 2b                	jne    3318 <__do_global_dtors_aux+0x38>
    32ed:	55                   	push   %rbp
    32ee:	48 83 3d f2 cc 01 00 	cmpq   $0x0,0x1ccf2(%rip)        # 1ffe8 <__cxa_finalize@GLIBC_2.2.5>
    32f5:	00 
    32f6:	48 89 e5             	mov    %rsp,%rbp
    32f9:	74 0c                	je     3307 <__do_global_dtors_aux+0x27>
    32fb:	48 8b 3d 26 ce 01 00 	mov    0x1ce26(%rip),%rdi        # 20128 <__dso_handle>
    3302:	e8 29 ff ff ff       	call   3230 <__cxa_finalize@plt>
    3307:	e8 64 ff ff ff       	call   3270 <deregister_tm_clones>
    330c:	c6 05 fd d0 01 00 01 	movb   $0x1,0x1d0fd(%rip)        # 20410 <__TMC_END__>
    3313:	5d                   	pop    %rbp
    3314:	c3                   	ret
    3315:	0f 1f 00             	nopl   (%rax)
    3318:	c3                   	ret
    3319:	0f 1f 80 00 00 00 00 	nopl   0x0(%rax)

0000000000003320 <frame_dummy>:
    3320:	f3 0f 1e fa          	endbr64
    3324:	e9 77 ff ff ff       	jmp    32a0 <register_tm_clones>
    3329:	0f 1f 80 00 00 00 00 	nopl   0x0(%rax)

0000000000003330 <main>:
    3330:	55                   	push   %rbp
    3331:	48 89 e5             	mov    %rsp,%rbp
    3334:	48 83 ec 20          	sub    $0x20,%rsp
    3338:	c7 45 fc 00 00 00 00 	movl   $0x0,-0x4(%rbp)
    333f:	89 7d f8             	mov    %edi,-0x8(%rbp)
    3342:	48 89 75 f0          	mov    %rsi,-0x10(%rbp)
    3346:	c6 45 ef 00          	movb   $0x0,-0x11(%rbp)
    334a:	83 7d f8 01          	cmpl   $0x1,-0x8(%rbp)
    334e:	0f 8f 0a 00 00 00    	jg     335e <main+0x2e>
    3354:	e8 c7 01 00 00       	call   3520 <print_help>
    3359:	e9 ed 00 00 00       	jmp    344b <main+0x11b>
    335e:	e9 00 00 00 00       	jmp    3363 <main+0x33>
    3363:	8b 7d f8             	mov    -0x8(%rbp),%edi
    3366:	48 8b 75 f0          	mov    -0x10(%rbp),%rsi
    336a:	48 8d 15 73 4d 01 00 	lea    0x14d73(%rip),%rdx        # 180e4 <_IO_stdin_used+0xe4>
    3371:	e8 5a fe ff ff       	call   31d0 <getopt@plt>
    3376:	89 45 e8             	mov    %eax,-0x18(%rbp)
    3379:	83 f8 ff             	cmp    $0xffffffff,%eax
    337c:	0f 84 89 00 00 00    	je     340b <main+0xdb>
    3382:	8b 45 e8             	mov    -0x18(%rbp),%eax
    3385:	83 c0 c1             	add    $0xffffffc1,%eax
    3388:	89 c1                	mov    %eax,%ecx
    338a:	48 89 4d e0          	mov    %rcx,-0x20(%rbp)
    338e:	83 e8 37             	sub    $0x37,%eax
    3391:	0f 87 6f 00 00 00    	ja     3406 <main+0xd6>
    3397:	48 8b 45 e0          	mov    -0x20(%rbp),%rax
    339b:	48 8d 0d 62 4c 01 00 	lea    0x14c62(%rip),%rcx        # 18004 <_IO_stdin_used+0x4>
    33a2:	48 63 04 81          	movslq (%rcx,%rax,4),%rax
    33a6:	48 01 c8             	add    %rcx,%rax
    33a9:	ff e0                	jmp    *%rax
    33ab:	48 8d 05 6b d0 01 00 	lea    0x1d06b(%rip),%rax        # 2041d <enable_jit>
    33b2:	c6 00 01             	movb   $0x1,(%rax)
    33b5:	e9 4c 00 00 00       	jmp    3406 <main+0xd6>
    33ba:	e8 61 01 00 00       	call   3520 <print_help>
    33bf:	e9 42 00 00 00       	jmp    3406 <main+0xd6>
    33c4:	e8 87 01 00 00       	call   3550 <print_version>
    33c9:	e9 38 00 00 00       	jmp    3406 <main+0xd6>
    33ce:	c6 45 ef 01          	movb   $0x1,-0x11(%rbp)
    33d2:	e9 2f 00 00 00       	jmp    3406 <main+0xd6>
    33d7:	48 8d 05 36 d0 01 00 	lea    0x1d036(%rip),%rax        # 20414 <slip_debug_compile>
    33de:	c6 00 01             	movb   $0x1,(%rax)
    33e1:	e9 20 00 00 00       	jmp    3406 <main+0xd6>
    33e6:	48 8d 05 2f d0 01 00 	lea    0x1d02f(%rip),%rax        # 2041c <slip_debug_exec>
    33ed:	c6 00 01             	movb   $0x1,(%rax)
    33f0:	e9 11 00 00 00       	jmp    3406 <main+0xd6>
    33f5:	8b 75 e8             	mov    -0x18(%rbp),%esi
    33f8:	48 8d 3d ec 4c 01 00 	lea    0x14cec(%rip),%rdi        # 180eb <_IO_stdin_used+0xeb>
    33ff:	b0 00                	mov    $0x0,%al
    3401:	e8 ca fc ff ff       	call   30d0 <printf@plt>
    3406:	e9 58 ff ff ff       	jmp    3363 <main+0x33>
    340b:	f6 45 ef 01          	testb  $0x1,-0x11(%rbp)
    340f:	0f 84 1b 00 00 00    	je     3430 <main+0x100>
    3415:	48 8b 45 f0          	mov    -0x10(%rbp),%rax
    3419:	8b 4d f8             	mov    -0x8(%rbp),%ecx
    341c:	83 e9 01             	sub    $0x1,%ecx
    341f:	48 63 c9             	movslq %ecx,%rcx
    3422:	48 8b 3c c8          	mov    (%rax,%rcx,8),%rdi
    3426:	e8 35 00 00 00       	call   3460 <parse_only>
    342b:	e9 16 00 00 00       	jmp    3446 <main+0x116>
    3430:	48 8b 45 f0          	mov    -0x10(%rbp),%rax
    3434:	8b 4d f8             	mov    -0x8(%rbp),%ecx
    3437:	83 e9 01             	sub    $0x1,%ecx
    343a:	48 63 c9             	movslq %ecx,%rcx
    343d:	48 8b 3c c8          	mov    (%rax,%rcx,8),%rdi
    3441:	e8 8a 00 00 00       	call   34d0 <run_file>
    3446:	e9 00 00 00 00       	jmp    344b <main+0x11b>
    344b:	31 c0                	xor    %eax,%eax
    344d:	48 83 c4 20          	add    $0x20,%rsp
    3451:	5d                   	pop    %rbp
    3452:	c3                   	ret
    3453:	66 2e 0f 1f 84 00 00 	cs nopw 0x0(%rax,%rax,1)
    345a:	00 00 00 
    345d:	0f 1f 00             	nopl   (%rax)

0000000000003460 <parse_only>:
    3460:	55                   	push   %rbp
    3461:	48 89 e5             	mov    %rsp,%rbp
    3464:	48 83 ec 20          	sub    $0x20,%rsp
    3468:	48 89 7d f8          	mov    %rdi,-0x8(%rbp)
    346c:	b0 00                	mov    $0x0,%al
    346e:	e8 6d 75 00 00       	call   a9e0 <slip_init>
    3473:	48 89 45 f0          	mov    %rax,-0x10(%rbp)
    3477:	48 8b 7d f0          	mov    -0x10(%rbp),%rdi
    347b:	48 8b 75 f8          	mov    -0x8(%rbp),%rsi
    347f:	e8 dc 88 00 00       	call   bd60 <slipL_parseFile>
    3484:	48 89 45 e8          	mov    %rax,-0x18(%rbp)
    3488:	48 8b 75 f8          	mov    -0x8(%rbp),%rsi
    348c:	48 8d 3d 75 4c 01 00 	lea    0x14c75(%rip),%rdi        # 18108 <_IO_stdin_used+0x108>
    3493:	b0 00                	mov    $0x0,%al
    3495:	e8 36 fc ff ff       	call   30d0 <printf@plt>
    349a:	48 8d 3d 77 4c 01 00 	lea    0x14c77(%rip),%rdi        # 18118 <_IO_stdin_used+0x118>
    34a1:	b0 00                	mov    $0x0,%al
    34a3:	e8 28 fc ff ff       	call   30d0 <printf@plt>
    34a8:	48 8b 7d e8          	mov    -0x18(%rbp),%rdi
    34ac:	e8 ff 86 00 00       	call   bbb0 <slipL_print>
    34b1:	48 8d 3d 72 4c 01 00 	lea    0x14c72(%rip),%rdi        # 1812a <_IO_stdin_used+0x12a>
    34b8:	b0 00                	mov    $0x0,%al
    34ba:	e8 11 fc ff ff       	call   30d0 <printf@plt>
    34bf:	48 8b 7d f0          	mov    -0x10(%rbp),%rdi
    34c3:	e8 98 7a 00 00       	call   af60 <slipC_close>
    34c8:	48 83 c4 20          	add    $0x20,%rsp
    34cc:	5d                   	pop    %rbp
    34cd:	c3                   	ret
    34ce:	66 90                	xchg   %ax,%ax

00000000000034d0 <run_file>:
    34d0:	55                   	push   %rbp
    34d1:	48 89 e5             	mov    %rsp,%rbp
    34d4:	48 83 ec 20          	sub    $0x20,%rsp
    34d8:	48 89 7d f8          	mov    %rdi,-0x8(%rbp)
    34dc:	b0 00                	mov    $0x0,%al
    34de:	e8 fd 74 00 00       	call   a9e0 <slip_init>
    34e3:	48 89 45 f0          	mov    %rax,-0x10(%rbp)
    34e7:	48 8b 7d f0          	mov    -0x10(%rbp),%rdi
    34eb:	e8 d0 00 00 00       	call   35c0 <slip_openStdLib>
    34f0:	48 8b 7d f0          	mov    -0x10(%rbp),%rdi
    34f4:	48 8b 75 f8          	mov    -0x8(%rbp),%rsi
    34f8:	e8 63 7c 00 00       	call   b160 <slipC_loadFile>
    34fd:	48 8b 7d f0          	mov    -0x10(%rbp),%rdi
    3501:	31 f6                	xor    %esi,%esi
    3503:	e8 b8 be 00 00       	call   f3c0 <slipV_call>
    3508:	48 89 45 e8          	mov    %rax,-0x18(%rbp)
    350c:	48 8b 7d f0          	mov    -0x10(%rbp),%rdi
    3510:	e8 4b 7a 00 00       	call   af60 <slipC_close>
    3515:	48 83 c4 20          	add    $0x20,%rsp
    3519:	5d                   	pop    %rbp
    351a:	c3                   	ret
    351b:	0f 1f 44 00 00       	nopl   0x0(%rax,%rax,1)

0000000000003520 <print_help>:
    3520:	55                   	push   %rbp
    3521:	48 89 e5             	mov    %rsp,%rbp
    3524:	48 83 ec 40          	sub    $0x40,%rsp
    3528:	48 8d 7d c0          	lea    -0x40(%rbp),%rdi
    352c:	48 8d 35 fd 4b 01 00 	lea    0x14bfd(%rip),%rsi        # 18130 <_IO_stdin_used+0x130>
    3533:	ba 3e 00 00 00       	mov    $0x3e,%edx
    3538:	e8 33 fc ff ff       	call   3170 <memcpy@plt>
    353d:	48 8d 7d c0          	lea    -0x40(%rbp),%rdi
    3541:	b0 00                	mov    $0x0,%al
    3543:	e8 88 fb ff ff       	call   30d0 <printf@plt>
    3548:	48 83 c4 40          	add    $0x40,%rsp
    354c:	5d                   	pop    %rbp
    354d:	c3                   	ret
    354e:	66 90                	xchg   %ax,%ax

0000000000003550 <print_version>:
    3550:	55                   	push   %rbp
    3551:	48 89 e5             	mov    %rsp,%rbp
    3554:	48 83 ec 10          	sub    $0x10,%rsp
    3558:	48 8b 05 9e 4b 01 00 	mov    0x14b9e(%rip),%rax        # 180fd <_IO_stdin_used+0xfd>
    355f:	48 89 45 f5          	mov    %rax,-0xb(%rbp)
    3563:	66 8b 05 9b 4b 01 00 	mov    0x14b9b(%rip),%ax        # 18105 <_IO_stdin_used+0x105>
    356a:	66 89 45 fd          	mov    %ax,-0x3(%rbp)
    356e:	8a 05 93 4b 01 00    	mov    0x14b93(%rip),%al        # 18107 <_IO_stdin_used+0x107>
    3574:	88 45 ff             	mov    %al,-0x1(%rbp)
    3577:	48 8d 7d f5          	lea    -0xb(%rbp),%rdi
    357b:	b0 00                	mov    $0x0,%al
    357d:	e8 4e fb ff ff       	call   30d0 <printf@plt>
    3582:	48 83 c4 10          	add    $0x10,%rsp
    3586:	5d                   	pop    %rbp
    3587:	c3                   	ret
    3588:	0f 1f 84 00 00 00 00 	nopl   0x0(%rax,%rax,1)
    358f:	00 

0000000000003590 <slip_openBaseLib>:
    3590:	55                   	push   %rbp
    3591:	48 89 e5             	mov    %rsp,%rbp
    3594:	48 83 ec 10          	sub    $0x10,%rsp
    3598:	48 89 7d f8          	mov    %rdi,-0x8(%rbp)
    359c:	48 8b 7d f8          	mov    -0x8(%rbp),%rdi
    35a0:	48 8d 35 99 c1 01 00 	lea    0x1c199(%rip),%rsi        # 1f740 <stdlib>
    35a7:	e8 64 68 00 00       	call   9e10 <slipL_regGlobalCFuncs>
    35ac:	31 c0                	xor    %eax,%eax
    35ae:	48 83 c4 10          	add    $0x10,%rsp
    35b2:	5d                   	pop    %rbp
    35b3:	c3                   	ret
    35b4:	66 2e 0f 1f 84 00 00 	cs nopw 0x0(%rax,%rax,1)
    35bb:	00 00 00 
    35be:	66 90                	xchg   %ax,%ax

00000000000035c0 <slip_openStdLib>:
    35c0:	55                   	push   %rbp
    35c1:	48 89 e5             	mov    %rsp,%rbp
    35c4:	48 83 ec 10          	sub    $0x10,%rsp
    35c8:	48 89 7d f8          	mov    %rdi,-0x8(%rbp)
    35cc:	48 8b 7d f8          	mov    -0x8(%rbp),%rdi
    35d0:	e8 bb ff ff ff       	call   3590 <slip_openBaseLib>
    35d5:	48 8b 7d f8          	mov    -0x8(%rbp),%rdi
    35d9:	e8 f2 00 00 00       	call   36d0 <slip_openCompilerLib>
    35de:	48 8b 7d f8          	mov    -0x8(%rbp),%rdi
    35e2:	e8 09 5f 00 00       	call   94f0 <slip_openMathLib>
    35e7:	48 8b 7d f8          	mov    -0x8(%rbp),%rdi
    35eb:	e8 60 64 00 00       	call   9a50 <slip_openStringLib>
    35f0:	48 8b 7d f8          	mov    -0x8(%rbp),%rdi
    35f4:	e8 b7 5d 00 00       	call   93b0 <slip_openIOLib>
    35f9:	31 c0                	xor    %eax,%eax
    35fb:	48 83 c4 10          	add    $0x10,%rsp
    35ff:	5d                   	pop    %rbp
    3600:	c3                   	ret
    3601:	66 2e 0f 1f 84 00 00 	cs nopw 0x0(%rax,%rax,1)
    3608:	00 00 00 
    360b:	0f 1f 44 00 00       	nopl   0x0(%rax,%rax,1)

0000000000003610 <_print>:
    3610:	55                   	push   %rbp
    3611:	48 89 e5             	mov    %rsp,%rbp
    3614:	48 83 ec 30          	sub    $0x30,%rsp
    3618:	48 89 7d f0          	mov    %rdi,-0x10(%rbp)
    361c:	89 75 ec             	mov    %esi,-0x14(%rbp)
    361f:	31 c0                	xor    %eax,%eax
    3621:	2b 45 ec             	sub    -0x14(%rbp),%eax
    3624:	89 45 e8             	mov    %eax,-0x18(%rbp)
    3627:	83 7d e8 00          	cmpl   $0x0,-0x18(%rbp)
    362b:	0f 8d 3b 00 00 00    	jge    366c <_print+0x5c>
    3631:	48 8b 7d f0          	mov    -0x10(%rbp),%rdi
    3635:	8b 75 e8             	mov    -0x18(%rbp),%esi
    3638:	e8 83 b8 00 00       	call   eec0 <slipV_getValue>
    363d:	48 89 45 d8          	mov    %rax,-0x28(%rbp)
    3641:	89 55 e0             	mov    %edx,-0x20(%rbp)
    3644:	48 8b 7d d8          	mov    -0x28(%rbp),%rdi
    3648:	8b 75 e0             	mov    -0x20(%rbp),%esi
    364b:	e8 e0 b2 00 00       	call   e930 <slipV_printValue>
    3650:	48 8d 3d 2f 58 01 00 	lea    0x1582f(%rip),%rdi        # 18e86 <getFreeElement.b+0x686>
    3657:	b0 00                	mov    $0x0,%al
    3659:	e8 72 fa ff ff       	call   30d0 <printf@plt>
    365e:	8b 45 e8             	mov    -0x18(%rbp),%eax
    3661:	83 c0 01             	add    $0x1,%eax
    3664:	89 45 e8             	mov    %eax,-0x18(%rbp)
    3667:	e9 bb ff ff ff       	jmp    3627 <_print+0x17>
    366c:	48 8b 7d f0          	mov    -0x10(%rbp),%rdi
    3670:	48 83 c7 08          	add    $0x8,%rdi
    3674:	8b 75 ec             	mov    -0x14(%rbp),%esi
    3677:	e8 f4 a3 00 00       	call   da70 <slipS_popValueNum>
    367c:	48 8d 3d a8 4a 01 00 	lea    0x14aa8(%rip),%rdi        # 1812b <_IO_stdin_used+0x12b>
    3683:	b0 00                	mov    $0x0,%al
    3685:	e8 46 fa ff ff       	call   30d0 <printf@plt>
    368a:	31 f6                	xor    %esi,%esi
    368c:	89 f7                	mov    %esi,%edi
    368e:	e8 1d 00 00 00       	call   36b0 <slip_Return>
    3693:	48 89 45 f8          	mov    %rax,-0x8(%rbp)
    3697:	48 8b 45 f8          	mov    -0x8(%rbp),%rax
    369b:	48 83 c4 30          	add    $0x30,%rsp
    369f:	5d                   	pop    %rbp
    36a0:	c3                   	ret
    36a1:	66 2e 0f 1f 84 00 00 	cs nopw 0x0(%rax,%rax,1)
    36a8:	00 00 00 
    36ab:	0f 1f 44 00 00       	nopl   0x0(%rax,%rax,1)

00000000000036b0 <slip_Return>:
    36b0:	55                   	push   %rbp
    36b1:	48 89 e5             	mov    %rsp,%rbp
    36b4:	89 7d f4             	mov    %edi,-0xc(%rbp)
    36b7:	89 75 f0             	mov    %esi,-0x10(%rbp)
    36ba:	8b 45 f4             	mov    -0xc(%rbp),%eax
    36bd:	89 45 f8             	mov    %eax,-0x8(%rbp)
    36c0:	8b 45 f0             	mov    -0x10(%rbp),%eax
    36c3:	89 45 fc             	mov    %eax,-0x4(%rbp)
    36c6:	48 8b 45 f8          	mov    -0x8(%rbp),%rax
    36ca:	5d                   	pop    %rbp
    36cb:	c3                   	ret
    36cc:	0f 1f 40 00          	nopl   0x0(%rax)

00000000000036d0 <slip_openCompilerLib>:
    36d0:	55                   	push   %rbp
    36d1:	48 89 e5             	mov    %rsp,%rbp
    36d4:	48 83 ec 10          	sub    $0x10,%rsp
    36d8:	48 89 7d f8          	mov    %rdi,-0x8(%rbp)
    36dc:	48 8b 7d f8          	mov    -0x8(%rbp),%rdi
    36e0:	48 8d 35 79 c0 01 00 	lea    0x1c079(%rip),%rsi        # 1f760 <stdmacro>
    36e7:	e8 04 69 00 00       	call   9ff0 <slipL_regGlobalCMacros>
    36ec:	31 c0                	xor    %eax,%eax
    36ee:	48 83 c4 10          	add    $0x10,%rsp
    36f2:	5d                   	pop    %rbp
    36f3:	c3                   	ret
    36f4:	66 2e 0f 1f 84 00 00 	cs nopw 0x0(%rax,%rax,1)
    36fb:	00 00 00 
    36fe:	66 90                	xchg   %ax,%ax

0000000000003700 <_var>:
    3700:	55                   	push   %rbp
    3701:	48 89 e5             	mov    %rsp,%rbp
    3704:	48 81 ec d0 00 00 00 	sub    $0xd0,%rsp
    370b:	48 89 7d f0          	mov    %rdi,-0x10(%rbp)
    370f:	89 75 ec             	mov    %esi,-0x14(%rbp)
    3712:	83 7d ec 01          	cmpl   $0x1,-0x14(%rbp)
    3716:	0f 8c 05 00 00 00    	jl     3721 <_var+0x21>
    371c:	e9 1f 00 00 00       	jmp    3740 <_var+0x40>
    3721:	48 8d 3d be 4a 01 00 	lea    0x14abe(%rip),%rdi        # 181e6 <_IO_stdin_used+0x1e6>
    3728:	48 8d 35 c0 4a 01 00 	lea    0x14ac0(%rip),%rsi        # 181ef <_IO_stdin_used+0x1ef>
    372f:	ba f7 00 00 00       	mov    $0xf7,%edx
    3734:	48 8d 0d d7 4a 01 00 	lea    0x14ad7(%rip),%rcx        # 18212 <_IO_stdin_used+0x212>
    373b:	e8 b0 f9 ff ff       	call   30f0 <__assert_fail@plt>
    3740:	c7 45 e8 01 00 00 00 	movl   $0x1,-0x18(%rbp)
    3747:	48 8b 7d f0          	mov    -0x10(%rbp),%rdi
    374b:	31 f6                	xor    %esi,%esi
    374d:	2b 75 ec             	sub    -0x14(%rbp),%esi
    3750:	e8 6b b7 00 00       	call   eec0 <slipV_getValue>
    3755:	48 89 45 d8          	mov    %rax,-0x28(%rbp)
    3759:	89 55 e0             	mov    %edx,-0x20(%rbp)
    375c:	48 8d 7d c8          	lea    -0x38(%rbp),%rdi
    3760:	31 f6                	xor    %esi,%esi
    3762:	ba 10 00 00 00       	mov    $0x10,%edx
    3767:	e8 94 f9 ff ff       	call   3100 <memset@plt>
    376c:	83 7d ec 02          	cmpl   $0x2,-0x14(%rbp)
    3770:	0f 82 25 00 00 00    	jb     379b <_var+0x9b>
    3776:	48 8b 7d f0          	mov    -0x10(%rbp),%rdi
    377a:	be ff ff ff ff       	mov    $0xffffffff,%esi
    377f:	e8 3c b7 00 00       	call   eec0 <slipV_getValue>
    3784:	48 89 45 b8          	mov    %rax,-0x48(%rbp)
    3788:	89 55 c0             	mov    %edx,-0x40(%rbp)
    378b:	48 8b 45 b8          	mov    -0x48(%rbp),%rax
    378f:	48 89 45 c8          	mov    %rax,-0x38(%rbp)
    3793:	48 8b 45 c0          	mov    -0x40(%rbp),%rax
    3797:	48 89 45 d0          	mov    %rax,-0x30(%rbp)
    379b:	48 8b 7d f0          	mov    -0x10(%rbp),%rdi
    379f:	48 83 c7 08          	add    $0x8,%rdi
    37a3:	8b 75 ec             	mov    -0x14(%rbp),%esi
    37a6:	e8 c5 a2 00 00       	call   da70 <slipS_popValueNum>
    37ab:	48 8d 05 62 cc 01 00 	lea    0x1cc62(%rip),%rax        # 20414 <slip_debug_compile>
    37b2:	f6 00 01             	testb  $0x1,(%rax)
    37b5:	0f 84 11 00 00 00    	je     37cc <_var+0xcc>
    37bb:	8b 75 ec             	mov    -0x14(%rbp),%esi
    37be:	48 8d 3d 69 4a 01 00 	lea    0x14a69(%rip),%rdi        # 1822e <_IO_stdin_used+0x22e>
    37c5:	b0 00                	mov    $0x0,%al
    37c7:	e8 04 f9 ff ff       	call   30d0 <printf@plt>
    37cc:	e9 00 00 00 00       	jmp    37d1 <_var+0xd1>
    37d1:	48 8d 05 3c cc 01 00 	lea    0x1cc3c(%rip),%rax        # 20414 <slip_debug_compile>
    37d8:	f6 00 01             	testb  $0x1,(%rax)
    37db:	0f 84 18 00 00 00    	je     37f9 <_var+0xf9>
    37e1:	48 8b 7d f0          	mov    -0x10(%rbp),%rdi
    37e5:	48 8b 75 d8          	mov    -0x28(%rbp),%rsi
    37e9:	8b 55 e0             	mov    -0x20(%rbp),%edx
    37ec:	48 8b 4d c8          	mov    -0x38(%rbp),%rcx
    37f0:	44 8b 45 d0          	mov    -0x30(%rbp),%r8d
    37f4:	e8 47 4c 00 00       	call   8440 <check_vars>
    37f9:	48 8b 7d f0          	mov    -0x10(%rbp),%rdi
    37fd:	be ff ff ff ff       	mov    $0xffffffff,%esi
    3802:	e8 e9 7c 00 00       	call   b4f0 <slipC_getFunc>
    3807:	48 89 45 b0          	mov    %rax,-0x50(%rbp)
    380b:	48 8b 45 b0          	mov    -0x50(%rbp),%rax
    380f:	8b 40 10             	mov    0x10(%rax),%eax
    3812:	89 45 ac             	mov    %eax,-0x54(%rbp)
    3815:	c7 45 a8 00 00 00 00 	movl   $0x0,-0x58(%rbp)
    381c:	48 8b 45 d8          	mov    -0x28(%rbp),%rax
    3820:	48 89 45 98          	mov    %rax,-0x68(%rbp)
    3824:	48 8b 45 98          	mov    -0x68(%rbp),%rax
    3828:	48 89 45 90          	mov    %rax,-0x70(%rbp)
    382c:	48 8b 45 90          	mov    -0x70(%rbp),%rax
    3830:	48 89 45 a0          	mov    %rax,-0x60(%rbp)
    3834:	48 8b 45 a0          	mov    -0x60(%rbp),%rax
    3838:	48 8b 40 08          	mov    0x8(%rax),%rax
    383c:	48 89 45 88          	mov    %rax,-0x78(%rbp)
    3840:	8b 45 ac             	mov    -0x54(%rbp),%eax
    3843:	03 45 a8             	add    -0x58(%rbp),%eax
    3846:	48 63 f0             	movslq %eax,%rsi
    3849:	48 8d bd 78 ff ff ff 	lea    -0x88(%rbp),%rdi
    3850:	e8 9b aa 00 00       	call   e2f0 <slipV_setValueInt>
    3855:	48 8b 7d f0          	mov    -0x10(%rbp),%rdi
    3859:	48 8b 75 88          	mov    -0x78(%rbp),%rsi
    385d:	48 8b 95 78 ff ff ff 	mov    -0x88(%rbp),%rdx
    3864:	8b 4d 80             	mov    -0x80(%rbp),%ecx
    3867:	e8 54 7b 00 00       	call   b3c0 <slipC_setID>
    386c:	8b 45 a8             	mov    -0x58(%rbp),%eax
    386f:	83 c0 01             	add    $0x1,%eax
    3872:	89 45 a8             	mov    %eax,-0x58(%rbp)
    3875:	48 8b 45 90          	mov    -0x70(%rbp),%rax
    3879:	48 8b 00             	mov    (%rax),%rax
    387c:	48 89 45 90          	mov    %rax,-0x70(%rbp)
    3880:	48 8b 45 90          	mov    -0x70(%rbp),%rax
    3884:	48 3b 45 98          	cmp    -0x68(%rbp),%rax
    3888:	0f 85 9e ff ff ff    	jne    382c <_var+0x12c>
    388e:	e9 00 00 00 00       	jmp    3893 <_var+0x193>
    3893:	e9 00 00 00 00       	jmp    3898 <_var+0x198>
    3898:	c7 85 74 ff ff ff 00 	movl   $0x0,-0x8c(%rbp)
    389f:	00 00 00 
    38a2:	83 7d d0 00          	cmpl   $0x0,-0x30(%rbp)
    38a6:	0f 84 f7 00 00 00    	je     39a3 <_var+0x2a3>
    38ac:	48 8b 45 c8          	mov    -0x38(%rbp),%rax
    38b0:	48 89 85 60 ff ff ff 	mov    %rax,-0xa0(%rbp)
    38b7:	48 8b 85 60 ff ff ff 	mov    -0xa0(%rbp),%rax
    38be:	48 89 85 58 ff ff ff 	mov    %rax,-0xa8(%rbp)
    38c5:	48 8b 85 58 ff ff ff 	mov    -0xa8(%rbp),%rax
    38cc:	48 89 85 68 ff ff ff 	mov    %rax,-0x98(%rbp)
    38d3:	c7 85 54 ff ff ff 00 	movl   $0x0,-0xac(%rbp)
    38da:	00 00 00 
    38dd:	48 8b 7d f0          	mov    -0x10(%rbp),%rdi
    38e1:	48 8b 75 b0          	mov    -0x50(%rbp),%rsi
    38e5:	48 8b 85 68 ff ff ff 	mov    -0x98(%rbp),%rax
    38ec:	48 8b 50 08          	mov    0x8(%rax),%rdx
    38f0:	8b 48 10             	mov    0x10(%rax),%ecx
    38f3:	4c 8d 85 54 ff ff ff 	lea    -0xac(%rbp),%r8
    38fa:	e8 81 4c 00 00       	call   8580 <load>
    38ff:	89 85 50 ff ff ff    	mov    %eax,-0xb0(%rbp)
    3905:	83 bd 54 ff ff ff 00 	cmpl   $0x0,-0xac(%rbp)
    390c:	0f 85 4e 00 00 00    	jne    3960 <_var+0x260>
    3912:	48 8b 45 b0          	mov    -0x50(%rbp),%rax
    3916:	48 89 85 38 ff ff ff 	mov    %rax,-0xc8(%rbp)
    391d:	8b 45 ac             	mov    -0x54(%rbp),%eax
    3920:	03 85 74 ff ff ff    	add    -0x8c(%rbp),%eax
    3926:	66 89 c1             	mov    %ax,%cx
    3929:	8b 85 50 ff ff ff    	mov    -0xb0(%rbp),%eax
    392f:	0f b7 f9             	movzwl %cx,%edi
    3932:	0f b7 f0             	movzwl %ax,%esi
    3935:	e8 36 51 00 00       	call   8a70 <slipI_move>
    393a:	48 8b bd 38 ff ff ff 	mov    -0xc8(%rbp),%rdi
    3941:	89 85 48 ff ff ff    	mov    %eax,-0xb8(%rbp)
    3947:	8b b5 48 ff ff ff    	mov    -0xb8(%rbp),%esi
    394d:	e8 ce 88 00 00       	call   c220 <slipP_addInstruction>
    3952:	48 8b 7d b0          	mov    -0x50(%rbp),%rdi
    3956:	be 01 00 00 00       	mov    $0x1,%esi
    395b:	e8 50 8c 00 00       	call   c5b0 <slipP_addLocalVar>
    3960:	8b 85 74 ff ff ff    	mov    -0x8c(%rbp),%eax
    3966:	83 c0 01             	add    $0x1,%eax
    3969:	89 85 74 ff ff ff    	mov    %eax,-0x8c(%rbp)
    396f:	48 8b 85 58 ff ff ff 	mov    -0xa8(%rbp),%rax
    3976:	48 8b 00             	mov    (%rax),%rax
    3979:	48 89 85 58 ff ff ff 	mov    %rax,-0xa8(%rbp)
    3980:	48 8b 85 58 ff ff ff 	mov    -0xa8(%rbp),%rax
    3987:	48 3b 85 60 ff ff ff 	cmp    -0xa0(%rbp),%rax
    398e:	0f 85 31 ff ff ff    	jne    38c5 <_var+0x1c5>
    3994:	e9 00 00 00 00       	jmp    3999 <_var+0x299>
    3999:	e9 00 00 00 00       	jmp    399e <_var+0x29e>
    399e:	e9 00 00 00 00       	jmp    39a3 <_var+0x2a3>
    39a3:	8b 85 74 ff ff ff    	mov    -0x8c(%rbp),%eax
    39a9:	3b 45 a8             	cmp    -0x58(%rbp),%eax
    39ac:	0f 8d 4f 00 00 00    	jge    3a01 <_var+0x301>
    39b2:	48 8b 45 b0          	mov    -0x50(%rbp),%rax
    39b6:	48 89 85 30 ff ff ff 	mov    %rax,-0xd0(%rbp)
    39bd:	8b 45 ac             	mov    -0x54(%rbp),%eax
    39c0:	66 89 c1             	mov    %ax,%cx
    39c3:	8b 45 a8             	mov    -0x58(%rbp),%eax
    39c6:	2b 85 74 ff ff ff    	sub    -0x8c(%rbp),%eax
    39cc:	0f b7 f9             	movzwl %cx,%edi
    39cf:	0f b7 f0             	movzwl %ax,%esi
    39d2:	e8 e9 50 00 00       	call   8ac0 <slipI_loadNil>
    39d7:	48 8b bd 30 ff ff ff 	mov    -0xd0(%rbp),%rdi
    39de:	89 85 40 ff ff ff    	mov    %eax,-0xc0(%rbp)
    39e4:	8b b5 40 ff ff ff    	mov    -0xc0(%rbp),%esi
    39ea:	e8 31 88 00 00       	call   c220 <slipP_addInstruction>
    39ef:	48 8b 7d b0          	mov    -0x50(%rbp),%rdi
    39f3:	8b 75 a8             	mov    -0x58(%rbp),%esi
    39f6:	2b b5 74 ff ff ff    	sub    -0x8c(%rbp),%esi
    39fc:	e8 af 8b 00 00       	call   c5b0 <slipP_addLocalVar>
    3a01:	31 ff                	xor    %edi,%edi
    3a03:	be 02 00 00 00       	mov    $0x2,%esi
    3a08:	e8 03 51 00 00       	call   8b10 <slip_Return>
    3a0d:	48 89 45 f8          	mov    %rax,-0x8(%rbp)
    3a11:	48 8b 45 f8          	mov    -0x8(%rbp),%rax
    3a15:	48 81 c4 d0 00 00 00 	add    $0xd0,%rsp
    3a1c:	5d                   	pop    %rbp
    3a1d:	c3                   	ret
    3a1e:	66 90                	xchg   %ax,%ax

0000000000003a20 <_func>:
    3a20:	55                   	push   %rbp
    3a21:	48 89 e5             	mov    %rsp,%rbp
    3a24:	48 81 ec e0 00 00 00 	sub    $0xe0,%rsp
    3a2b:	48 89 7d f0          	mov    %rdi,-0x10(%rbp)
    3a2f:	89 75 ec             	mov    %esi,-0x14(%rbp)
    3a32:	83 7d ec 01          	cmpl   $0x1,-0x14(%rbp)
    3a36:	0f 84 23 00 00 00    	je     3a5f <_func+0x3f>
    3a3c:	48 8d 3d 21 48 01 00 	lea    0x14821(%rip),%rdi        # 18264 <_IO_stdin_used+0x264>
    3a43:	b0 00                	mov    $0x0,%al
    3a45:	e8 86 f6 ff ff       	call   30d0 <printf@plt>
    3a4a:	bf ff ff ff ff       	mov    $0xffffffff,%edi
    3a4f:	31 f6                	xor    %esi,%esi
    3a51:	e8 ba 50 00 00       	call   8b10 <slip_Return>
    3a56:	48 89 45 f8          	mov    %rax,-0x8(%rbp)
    3a5a:	e9 e8 03 00 00       	jmp    3e47 <_func+0x427>
    3a5f:	83 7d ec 01          	cmpl   $0x1,-0x14(%rbp)
    3a63:	0f 8c 05 00 00 00    	jl     3a6e <_func+0x4e>
    3a69:	e9 1f 00 00 00       	jmp    3a8d <_func+0x6d>
    3a6e:	48 8d 3d 71 47 01 00 	lea    0x14771(%rip),%rdi        # 181e6 <_IO_stdin_used+0x1e6>
    3a75:	48 8d 35 73 47 01 00 	lea    0x14773(%rip),%rsi        # 181ef <_IO_stdin_used+0x1ef>
    3a7c:	ba 22 01 00 00       	mov    $0x122,%edx
    3a81:	48 8d 0d 02 48 01 00 	lea    0x14802(%rip),%rcx        # 1828a <_IO_stdin_used+0x28a>
    3a88:	e8 63 f6 ff ff       	call   30f0 <__assert_fail@plt>
    3a8d:	c7 45 e8 01 00 00 00 	movl   $0x1,-0x18(%rbp)
    3a94:	48 8b 7d f0          	mov    -0x10(%rbp),%rdi
    3a98:	31 f6                	xor    %esi,%esi
    3a9a:	2b 75 ec             	sub    -0x14(%rbp),%esi
    3a9d:	e8 1e b4 00 00       	call   eec0 <slipV_getValue>
    3aa2:	48 89 45 d8          	mov    %rax,-0x28(%rbp)
    3aa6:	89 55 e0             	mov    %edx,-0x20(%rbp)
    3aa9:	48 8b 7d f0          	mov    -0x10(%rbp),%rdi
    3aad:	48 83 c7 08          	add    $0x8,%rdi
    3ab1:	8b 75 ec             	mov    -0x14(%rbp),%esi
    3ab4:	e8 b7 9f 00 00       	call   da70 <slipS_popValueNum>
    3ab9:	81 7d e0 00 01 00 00 	cmpl   $0x100,-0x20(%rbp)
    3ac0:	0f 84 23 00 00 00    	je     3ae9 <_func+0xc9>
    3ac6:	48 8d 3d da 47 01 00 	lea    0x147da(%rip),%rdi        # 182a7 <_IO_stdin_used+0x2a7>
    3acd:	b0 00                	mov    $0x0,%al
    3acf:	e8 fc f5 ff ff       	call   30d0 <printf@plt>
    3ad4:	bf ff ff ff ff       	mov    $0xffffffff,%edi
    3ad9:	31 f6                	xor    %esi,%esi
    3adb:	e8 30 50 00 00       	call   8b10 <slip_Return>
    3ae0:	48 89 45 f8          	mov    %rax,-0x8(%rbp)
    3ae4:	e9 5e 03 00 00       	jmp    3e47 <_func+0x427>
    3ae9:	48 8b 45 d8          	mov    -0x28(%rbp),%rax
    3aed:	48 89 45 d0          	mov    %rax,-0x30(%rbp)
    3af1:	48 8b 45 d0          	mov    -0x30(%rbp),%rax
    3af5:	48 89 45 c8          	mov    %rax,-0x38(%rbp)
    3af9:	48 8d 7d b8          	lea    -0x48(%rbp),%rdi
    3afd:	31 f6                	xor    %esi,%esi
    3aff:	ba 10 00 00 00       	mov    $0x10,%edx
    3b04:	e8 f7 f5 ff ff       	call   3100 <memset@plt>
    3b09:	48 8d 7d c8          	lea    -0x38(%rbp),%rdi
    3b0d:	be 08 00 00 00       	mov    $0x8,%esi
    3b12:	48 8d 55 b8          	lea    -0x48(%rbp),%rdx
    3b16:	e8 35 83 00 00       	call   be50 <slipL_pullListArgument>
    3b1b:	48 8d 7d a8          	lea    -0x58(%rbp),%rdi
    3b1f:	31 f6                	xor    %esi,%esi
    3b21:	ba 10 00 00 00       	mov    $0x10,%edx
    3b26:	e8 d5 f5 ff ff       	call   3100 <memset@plt>
    3b2b:	48 8d 7d c8          	lea    -0x38(%rbp),%rdi
    3b2f:	be 00 01 00 00       	mov    $0x100,%esi
    3b34:	48 8d 55 a8          	lea    -0x58(%rbp),%rdx
    3b38:	e8 13 83 00 00       	call   be50 <slipL_pullListArgument>
    3b3d:	83 f8 00             	cmp    $0x0,%eax
    3b40:	0f 84 15 00 00 00    	je     3b5b <_func+0x13b>
    3b46:	bf ff ff ff ff       	mov    $0xffffffff,%edi
    3b4b:	31 f6                	xor    %esi,%esi
    3b4d:	e8 be 4f 00 00       	call   8b10 <slip_Return>
    3b52:	48 89 45 f8          	mov    %rax,-0x8(%rbp)
    3b56:	e9 ec 02 00 00       	jmp    3e47 <_func+0x427>
    3b5b:	48 8d 7d 98          	lea    -0x68(%rbp),%rdi
    3b5f:	31 f6                	xor    %esi,%esi
    3b61:	ba 10 00 00 00       	mov    $0x10,%edx
    3b66:	e8 95 f5 ff ff       	call   3100 <memset@plt>
    3b6b:	48 8d 7d c8          	lea    -0x38(%rbp),%rdi
    3b6f:	be 00 01 00 00       	mov    $0x100,%esi
    3b74:	48 8d 55 98          	lea    -0x68(%rbp),%rdx
    3b78:	e8 d3 82 00 00       	call   be50 <slipL_pullListArgument>
    3b7d:	83 f8 00             	cmp    $0x0,%eax
    3b80:	0f 84 15 00 00 00    	je     3b9b <_func+0x17b>
    3b86:	bf ff ff ff ff       	mov    $0xffffffff,%edi
    3b8b:	31 f6                	xor    %esi,%esi
    3b8d:	e8 7e 4f 00 00       	call   8b10 <slip_Return>
    3b92:	48 89 45 f8          	mov    %rax,-0x8(%rbp)
    3b96:	e9 ac 02 00 00       	jmp    3e47 <_func+0x427>
    3b9b:	e9 00 00 00 00       	jmp    3ba0 <_func+0x180>
    3ba0:	48 8d 05 6d c8 01 00 	lea    0x1c86d(%rip),%rax        # 20414 <slip_debug_compile>
    3ba7:	f6 00 01             	testb  $0x1,(%rax)
    3baa:	0f 84 12 00 00 00    	je     3bc2 <_func+0x1a2>
    3bb0:	48 8b 75 b8          	mov    -0x48(%rbp),%rsi
    3bb4:	48 8d 3d 15 47 01 00 	lea    0x14715(%rip),%rdi        # 182d0 <_IO_stdin_used+0x2d0>
    3bbb:	b0 00                	mov    $0x0,%al
    3bbd:	e8 0e f5 ff ff       	call   30d0 <printf@plt>
    3bc2:	e9 00 00 00 00       	jmp    3bc7 <_func+0x1a7>
    3bc7:	48 8d 05 46 c8 01 00 	lea    0x1c846(%rip),%rax        # 20414 <slip_debug_compile>
    3bce:	f6 00 01             	testb  $0x1,(%rax)
    3bd1:	0f 84 2c 00 00 00    	je     3c03 <_func+0x1e3>
    3bd7:	48 8b 7d f0          	mov    -0x10(%rbp),%rdi
    3bdb:	48 8b 75 b8          	mov    -0x48(%rbp),%rsi
    3bdf:	8b 55 c0             	mov    -0x40(%rbp),%edx
    3be2:	48 8b 4d a8          	mov    -0x58(%rbp),%rcx
    3be6:	44 8b 45 b0          	mov    -0x50(%rbp),%r8d
    3bea:	48 8d 45 98          	lea    -0x68(%rbp),%rax
    3bee:	4c 8b 08             	mov    (%rax),%r9
    3bf1:	4c 89 0c 24          	mov    %r9,(%rsp)
    3bf5:	48 8b 40 08          	mov    0x8(%rax),%rax
    3bf9:	48 89 44 24 08       	mov    %rax,0x8(%rsp)
    3bfe:	e8 1d 50 00 00       	call   8c20 <check_func>
    3c03:	b0 00                	mov    $0x0,%al
    3c05:	e8 a6 85 00 00       	call   c1b0 <slipP_createProto>
    3c0a:	48 89 45 90          	mov    %rax,-0x70(%rbp)
    3c0e:	48 8b 75 90          	mov    -0x70(%rbp),%rsi
    3c12:	48 8d 7d 80          	lea    -0x80(%rbp),%rdi
    3c16:	e8 b5 a5 00 00       	call   e1d0 <slipV_setValueFunc>
    3c1b:	48 8b 7d f0          	mov    -0x10(%rbp),%rdi
    3c1f:	be ff ff ff ff       	mov    $0xffffffff,%esi
    3c24:	e8 c7 78 00 00       	call   b4f0 <slipC_getFunc>
    3c29:	48 89 85 78 ff ff ff 	mov    %rax,-0x88(%rbp)
    3c30:	48 8b bd 78 ff ff ff 	mov    -0x88(%rbp),%rdi
    3c37:	48 8b 75 90          	mov    -0x70(%rbp),%rsi
    3c3b:	e8 a0 88 00 00       	call   c4e0 <slipP_addLocalFunc>
    3c40:	83 7d c0 00          	cmpl   $0x0,-0x40(%rbp)
    3c44:	0f 84 14 00 00 00    	je     3c5e <_func+0x23e>
    3c4a:	48 8b 7d f0          	mov    -0x10(%rbp),%rdi
    3c4e:	48 8b 75 b8          	mov    -0x48(%rbp),%rsi
    3c52:	48 8b 55 80          	mov    -0x80(%rbp),%rdx
    3c56:	8b 4d 88             	mov    -0x78(%rbp),%ecx
    3c59:	e8 62 77 00 00       	call   b3c0 <slipC_setID>
    3c5e:	c7 85 74 ff ff ff 00 	movl   $0x0,-0x8c(%rbp)
    3c65:	00 00 00 
    3c68:	81 7d b0 00 01 00 00 	cmpl   $0x100,-0x50(%rbp)
    3c6f:	0f 85 ba 00 00 00    	jne    3d2f <_func+0x30f>
    3c75:	48 8b 45 f0          	mov    -0x10(%rbp),%rax
    3c79:	48 89 85 40 ff ff ff 	mov    %rax,-0xc0(%rbp)
    3c80:	48 8b 45 f0          	mov    -0x10(%rbp),%rax
    3c84:	48 8b 78 48          	mov    0x48(%rax),%rdi
    3c88:	e8 73 92 00 00       	call   cf00 <slipD_table>
    3c8d:	48 8b 40 08          	mov    0x8(%rax),%rax
    3c91:	48 8b 4d f0          	mov    -0x10(%rbp),%rcx
    3c95:	48 8b 79 48          	mov    0x48(%rcx),%rdi
    3c99:	ff d0                	call   *%rax
    3c9b:	48 8b bd 40 ff ff ff 	mov    -0xc0(%rbp),%rdi
    3ca2:	48 89 c6             	mov    %rax,%rsi
    3ca5:	e8 a6 77 00 00       	call   b450 <slipC_pushEnvStack>
    3caa:	48 8b 45 a8          	mov    -0x58(%rbp),%rax
    3cae:	48 89 85 68 ff ff ff 	mov    %rax,-0x98(%rbp)
    3cb5:	48 83 bd 68 ff ff ff 	cmpq   $0x0,-0x98(%rbp)
    3cbc:	00 
    3cbd:	0f 84 67 00 00 00    	je     3d2a <_func+0x30a>
    3cc3:	48 8b 85 68 ff ff ff 	mov    -0x98(%rbp),%rax
    3cca:	48 8b 40 08          	mov    0x8(%rax),%rax
    3cce:	48 89 85 60 ff ff ff 	mov    %rax,-0xa0(%rbp)
    3cd5:	48 63 b5 74 ff ff ff 	movslq -0x8c(%rbp),%rsi
    3cdc:	48 8d bd 50 ff ff ff 	lea    -0xb0(%rbp),%rdi
    3ce3:	e8 08 a6 00 00       	call   e2f0 <slipV_setValueInt>
    3ce8:	48 8b 7d f0          	mov    -0x10(%rbp),%rdi
    3cec:	48 8b b5 60 ff ff ff 	mov    -0xa0(%rbp),%rsi
    3cf3:	48 8b 95 50 ff ff ff 	mov    -0xb0(%rbp),%rdx
    3cfa:	8b 8d 58 ff ff ff    	mov    -0xa8(%rbp),%ecx
    3d00:	e8 bb 76 00 00       	call   b3c0 <slipC_setID>
    3d05:	8b 85 74 ff ff ff    	mov    -0x8c(%rbp),%eax
    3d0b:	83 c0 01             	add    $0x1,%eax
    3d0e:	89 85 74 ff ff ff    	mov    %eax,-0x8c(%rbp)
    3d14:	48 8b 85 68 ff ff ff 	mov    -0x98(%rbp),%rax
    3d1b:	48 8b 00             	mov    (%rax),%rax
    3d1e:	48 89 85 68 ff ff ff 	mov    %rax,-0x98(%rbp)
    3d25:	e9 8b ff ff ff       	jmp    3cb5 <_func+0x295>
    3d2a:	e9 00 00 00 00       	jmp    3d2f <_func+0x30f>
    3d2f:	48 8b 7d 90          	mov    -0x70(%rbp),%rdi
    3d33:	8b b5 74 ff ff ff    	mov    -0x8c(%rbp),%esi
    3d39:	e8 72 87 00 00       	call   c4b0 <slipP_setArgs>
    3d3e:	48 8b 45 f0          	mov    -0x10(%rbp),%rax
    3d42:	48 89 85 38 ff ff ff 	mov    %rax,-0xc8(%rbp)
    3d49:	48 8b 45 f0          	mov    -0x10(%rbp),%rax
    3d4d:	48 8b 78 48          	mov    0x48(%rax),%rdi
    3d51:	e8 aa 91 00 00       	call   cf00 <slipD_table>
    3d56:	48 8b 40 08          	mov    0x8(%rax),%rax
    3d5a:	48 8b 4d f0          	mov    -0x10(%rbp),%rcx
    3d5e:	48 8b 79 48          	mov    0x48(%rcx),%rdi
    3d62:	ff d0                	call   *%rax
    3d64:	48 8b bd 38 ff ff ff 	mov    -0xc8(%rbp),%rdi
    3d6b:	48 89 c6             	mov    %rax,%rsi
    3d6e:	e8 dd 76 00 00       	call   b450 <slipC_pushEnvStack>
    3d73:	48 8b 7d f0          	mov    -0x10(%rbp),%rdi
    3d77:	48 8b 75 90          	mov    -0x70(%rbp),%rsi
    3d7b:	e8 40 73 00 00       	call   b0c0 <slipC_pushFuncStack>
    3d80:	48 8b 7d f0          	mov    -0x10(%rbp),%rdi
    3d84:	48 8b 75 98          	mov    -0x68(%rbp),%rsi
    3d88:	31 d2                	xor    %edx,%edx
    3d8a:	e8 71 cc 00 00       	call   10a00 <slipV_callList>
    3d8f:	89 85 4c ff ff ff    	mov    %eax,-0xb4(%rbp)
    3d95:	83 bd 4c ff ff ff 00 	cmpl   $0x0,-0xb4(%rbp)
    3d9c:	0f 8e 13 00 00 00    	jle    3db5 <_func+0x395>
    3da2:	48 8b 7d f0          	mov    -0x10(%rbp),%rdi
    3da6:	48 83 c7 08          	add    $0x8,%rdi
    3daa:	8b b5 4c ff ff ff    	mov    -0xb4(%rbp),%esi
    3db0:	e8 bb 9c 00 00       	call   da70 <slipS_popValueNum>
    3db5:	48 8b 7d f0          	mov    -0x10(%rbp),%rdi
    3db9:	e8 d2 76 00 00       	call   b490 <slipC_popEnvStack>
    3dbe:	48 8b 7d f0          	mov    -0x10(%rbp),%rdi
    3dc2:	e8 39 73 00 00       	call   b100 <slipC_popFuncStack>
    3dc7:	81 7d b0 00 01 00 00 	cmpl   $0x100,-0x50(%rbp)
    3dce:	0f 85 09 00 00 00    	jne    3ddd <_func+0x3bd>
    3dd4:	48 8b 7d f0          	mov    -0x10(%rbp),%rdi
    3dd8:	e8 b3 76 00 00       	call   b490 <slipC_popEnvStack>
    3ddd:	48 8b 45 90          	mov    -0x70(%rbp),%rax
    3de1:	48 89 85 30 ff ff ff 	mov    %rax,-0xd0(%rbp)
    3de8:	31 ff                	xor    %edi,%edi
    3dea:	e8 21 4f 00 00       	call   8d10 <slipI_return>
    3def:	48 8b bd 30 ff ff ff 	mov    -0xd0(%rbp),%rdi
    3df6:	89 85 48 ff ff ff    	mov    %eax,-0xb8(%rbp)
    3dfc:	8b b5 48 ff ff ff    	mov    -0xb8(%rbp),%esi
    3e02:	e8 19 84 00 00       	call   c220 <slipP_addInstruction>
    3e07:	48 8d 05 06 c6 01 00 	lea    0x1c606(%rip),%rax        # 20414 <slip_debug_compile>
    3e0e:	f6 00 01             	testb  $0x1,(%rax)
    3e11:	0f 84 09 00 00 00    	je     3e20 <_func+0x400>
    3e17:	48 8b 7d 90          	mov    -0x70(%rbp),%rdi
    3e1b:	e8 e0 87 00 00       	call   c600 <slipP_dump>
    3e20:	48 8b 7d f0          	mov    -0x10(%rbp),%rdi
    3e24:	48 83 c7 08          	add    $0x8,%rdi
    3e28:	48 8b 75 80          	mov    -0x80(%rbp),%rsi
    3e2c:	8b 55 88             	mov    -0x78(%rbp),%edx
    3e2f:	e8 9c 99 00 00       	call   d7d0 <slipS_pushValue>
    3e34:	bf 01 00 00 00       	mov    $0x1,%edi
    3e39:	be 03 00 00 00       	mov    $0x3,%esi
    3e3e:	e8 cd 4c 00 00       	call   8b10 <slip_Return>
    3e43:	48 89 45 f8          	mov    %rax,-0x8(%rbp)
    3e47:	48 8b 45 f8          	mov    -0x8(%rbp),%rax
    3e4b:	48 81 c4 e0 00 00 00 	add    $0xe0,%rsp
    3e52:	5d                   	pop    %rbp
    3e53:	c3                   	ret
    3e54:	66 2e 0f 1f 84 00 00 	cs nopw 0x0(%rax,%rax,1)
    3e5b:	00 00 00 
    3e5e:	66 90                	xchg   %ax,%ax

0000000000003e60 <_call>:
    3e60:	55                   	push   %rbp
    3e61:	48 89 e5             	mov    %rsp,%rbp
    3e64:	48 81 ec a0 00 00 00 	sub    $0xa0,%rsp
    3e6b:	48 89 7d f0          	mov    %rdi,-0x10(%rbp)
    3e6f:	89 75 ec             	mov    %esi,-0x14(%rbp)
    3e72:	83 7d ec 01          	cmpl   $0x1,-0x14(%rbp)
    3e76:	0f 84 23 00 00 00    	je     3e9f <_call+0x3f>
    3e7c:	48 8d 3d e1 43 01 00 	lea    0x143e1(%rip),%rdi        # 18264 <_IO_stdin_used+0x264>
    3e83:	b0 00                	mov    $0x0,%al
    3e85:	e8 46 f2 ff ff       	call   30d0 <printf@plt>
    3e8a:	bf ff ff ff ff       	mov    $0xffffffff,%edi
    3e8f:	31 f6                	xor    %esi,%esi
    3e91:	e8 7a 4c 00 00       	call   8b10 <slip_Return>
    3e96:	48 89 45 f8          	mov    %rax,-0x8(%rbp)
    3e9a:	e9 f1 02 00 00       	jmp    4190 <_call+0x330>
    3e9f:	83 7d ec 01          	cmpl   $0x1,-0x14(%rbp)
    3ea3:	0f 8c 05 00 00 00    	jl     3eae <_call+0x4e>
    3ea9:	e9 1f 00 00 00       	jmp    3ecd <_call+0x6d>
    3eae:	48 8d 3d 31 43 01 00 	lea    0x14331(%rip),%rdi        # 181e6 <_IO_stdin_used+0x1e6>
    3eb5:	48 8d 35 33 43 01 00 	lea    0x14333(%rip),%rsi        # 181ef <_IO_stdin_used+0x1ef>
    3ebc:	ba 9c 01 00 00       	mov    $0x19c,%edx
    3ec1:	48 8d 0d 36 44 01 00 	lea    0x14436(%rip),%rcx        # 182fe <_IO_stdin_used+0x2fe>
    3ec8:	e8 23 f2 ff ff       	call   30f0 <__assert_fail@plt>
    3ecd:	c7 45 e8 01 00 00 00 	movl   $0x1,-0x18(%rbp)
    3ed4:	48 8b 7d f0          	mov    -0x10(%rbp),%rdi
    3ed8:	31 f6                	xor    %esi,%esi
    3eda:	2b 75 ec             	sub    -0x14(%rbp),%esi
    3edd:	e8 de af 00 00       	call   eec0 <slipV_getValue>
    3ee2:	48 89 45 d8          	mov    %rax,-0x28(%rbp)
    3ee6:	89 55 e0             	mov    %edx,-0x20(%rbp)
    3ee9:	48 8b 7d f0          	mov    -0x10(%rbp),%rdi
    3eed:	48 83 c7 08          	add    $0x8,%rdi
    3ef1:	8b 75 ec             	mov    -0x14(%rbp),%esi
    3ef4:	e8 77 9b 00 00       	call   da70 <slipS_popValueNum>
    3ef9:	81 7d e0 00 01 00 00 	cmpl   $0x100,-0x20(%rbp)
    3f00:	0f 84 23 00 00 00    	je     3f29 <_call+0xc9>
    3f06:	48 8d 3d 9a 43 01 00 	lea    0x1439a(%rip),%rdi        # 182a7 <_IO_stdin_used+0x2a7>
    3f0d:	b0 00                	mov    $0x0,%al
    3f0f:	e8 bc f1 ff ff       	call   30d0 <printf@plt>
    3f14:	bf ff ff ff ff       	mov    $0xffffffff,%edi
    3f19:	31 f6                	xor    %esi,%esi
    3f1b:	e8 f0 4b 00 00       	call   8b10 <slip_Return>
    3f20:	48 89 45 f8          	mov    %rax,-0x8(%rbp)
    3f24:	e9 67 02 00 00       	jmp    4190 <_call+0x330>
    3f29:	48 8b 45 d8          	mov    -0x28(%rbp),%rax
    3f2d:	48 89 45 d0          	mov    %rax,-0x30(%rbp)
    3f31:	48 8b 45 d0          	mov    -0x30(%rbp),%rax
    3f35:	48 89 45 c8          	mov    %rax,-0x38(%rbp)
    3f39:	48 8d 7d b8          	lea    -0x48(%rbp),%rdi
    3f3d:	31 f6                	xor    %esi,%esi
    3f3f:	ba 10 00 00 00       	mov    $0x10,%edx
    3f44:	e8 b7 f1 ff ff       	call   3100 <memset@plt>
    3f49:	48 8d 7d c8          	lea    -0x38(%rbp),%rdi
    3f4d:	be 08 00 00 00       	mov    $0x8,%esi
    3f52:	48 8d 55 b8          	lea    -0x48(%rbp),%rdx
    3f56:	e8 f5 7e 00 00       	call   be50 <slipL_pullListArgument>
    3f5b:	83 f8 00             	cmp    $0x0,%eax
    3f5e:	0f 84 15 00 00 00    	je     3f79 <_call+0x119>
    3f64:	bf ff ff ff ff       	mov    $0xffffffff,%edi
    3f69:	31 f6                	xor    %esi,%esi
    3f6b:	e8 a0 4b 00 00       	call   8b10 <slip_Return>
    3f70:	48 89 45 f8          	mov    %rax,-0x8(%rbp)
    3f74:	e9 17 02 00 00       	jmp    4190 <_call+0x330>
    3f79:	48 8d 7d a8          	lea    -0x58(%rbp),%rdi
    3f7d:	31 f6                	xor    %esi,%esi
    3f7f:	ba 10 00 00 00       	mov    $0x10,%edx
    3f84:	e8 77 f1 ff ff       	call   3100 <memset@plt>
    3f89:	48 8d 7d c8          	lea    -0x38(%rbp),%rdi
    3f8d:	be 00 01 00 00       	mov    $0x100,%esi
    3f92:	48 8d 55 a8          	lea    -0x58(%rbp),%rdx
    3f96:	e8 b5 7e 00 00       	call   be50 <slipL_pullListArgument>
    3f9b:	83 f8 00             	cmp    $0x0,%eax
    3f9e:	0f 84 15 00 00 00    	je     3fb9 <_call+0x159>
    3fa4:	bf ff ff ff ff       	mov    $0xffffffff,%edi
    3fa9:	31 f6                	xor    %esi,%esi
    3fab:	e8 60 4b 00 00       	call   8b10 <slip_Return>
    3fb0:	48 89 45 f8          	mov    %rax,-0x8(%rbp)
    3fb4:	e9 d7 01 00 00       	jmp    4190 <_call+0x330>
    3fb9:	e9 00 00 00 00       	jmp    3fbe <_call+0x15e>
    3fbe:	48 8d 05 4f c4 01 00 	lea    0x1c44f(%rip),%rax        # 20414 <slip_debug_compile>
    3fc5:	f6 00 01             	testb  $0x1,(%rax)
    3fc8:	0f 84 12 00 00 00    	je     3fe0 <_call+0x180>
    3fce:	48 8b 75 b8          	mov    -0x48(%rbp),%rsi
    3fd2:	48 8d 3d 42 43 01 00 	lea    0x14342(%rip),%rdi        # 1831b <_IO_stdin_used+0x31b>
    3fd9:	b0 00                	mov    $0x0,%al
    3fdb:	e8 f0 f0 ff ff       	call   30d0 <printf@plt>
    3fe0:	e9 00 00 00 00       	jmp    3fe5 <_call+0x185>
    3fe5:	48 8b 7d f0          	mov    -0x10(%rbp),%rdi
    3fe9:	be ff ff ff ff       	mov    $0xffffffff,%esi
    3fee:	e8 fd 74 00 00       	call   b4f0 <slipC_getFunc>
    3ff3:	48 89 45 a0          	mov    %rax,-0x60(%rbp)
    3ff7:	c7 45 9c 00 00 00 00 	movl   $0x0,-0x64(%rbp)
    3ffe:	c7 45 98 00 00 00 00 	movl   $0x0,-0x68(%rbp)
    4005:	81 7d b0 00 01 00 00 	cmpl   $0x100,-0x50(%rbp)
    400c:	0f 85 ab 00 00 00    	jne    40bd <_call+0x25d>
    4012:	48 8b 45 a8          	mov    -0x58(%rbp),%rax
    4016:	48 89 45 90          	mov    %rax,-0x70(%rbp)
    401a:	48 83 7d 90 00       	cmpq   $0x0,-0x70(%rbp)
    401f:	0f 84 93 00 00 00    	je     40b8 <_call+0x258>
    4025:	48 8b 7d f0          	mov    -0x10(%rbp),%rdi
    4029:	48 8b 75 a0          	mov    -0x60(%rbp),%rsi
    402d:	48 8b 45 90          	mov    -0x70(%rbp),%rax
    4031:	48 8b 50 08          	mov    0x8(%rax),%rdx
    4035:	8b 48 10             	mov    0x10(%rax),%ecx
    4038:	4c 8d 45 9c          	lea    -0x64(%rbp),%r8
    403c:	e8 3f 45 00 00       	call   8580 <load>
    4041:	89 45 8c             	mov    %eax,-0x74(%rbp)
    4044:	83 7d 8c ff          	cmpl   $0xffffffff,-0x74(%rbp)
    4048:	0f 84 51 00 00 00    	je     409f <_call+0x23f>
    404e:	8b 45 8c             	mov    -0x74(%rbp),%eax
    4051:	48 8b 4d a0          	mov    -0x60(%rbp),%rcx
    4055:	8b 49 10             	mov    0x10(%rcx),%ecx
    4058:	83 e9 01             	sub    $0x1,%ecx
    405b:	39 c8                	cmp    %ecx,%eax
    405d:	0f 84 3c 00 00 00    	je     409f <_call+0x23f>
    4063:	48 8b 45 a0          	mov    -0x60(%rbp),%rax
    4067:	48 89 85 70 ff ff ff 	mov    %rax,-0x90(%rbp)
    406e:	8b 7d 8c             	mov    -0x74(%rbp),%edi
    4071:	e8 ca 4c 00 00       	call   8d40 <slipI_push>
    4076:	48 8b bd 70 ff ff ff 	mov    -0x90(%rbp),%rdi
    407d:	89 45 88             	mov    %eax,-0x78(%rbp)
    4080:	8b 75 88             	mov    -0x78(%rbp),%esi
    4083:	e8 98 81 00 00       	call   c220 <slipP_addInstruction>
    4088:	48 8b 7d a0          	mov    -0x60(%rbp),%rdi
    408c:	be 01 00 00 00       	mov    $0x1,%esi
    4091:	e8 1a 85 00 00       	call   c5b0 <slipP_addLocalVar>
    4096:	8b 45 9c             	mov    -0x64(%rbp),%eax
    4099:	83 c0 01             	add    $0x1,%eax
    409c:	89 45 9c             	mov    %eax,-0x64(%rbp)
    409f:	8b 45 98             	mov    -0x68(%rbp),%eax
    40a2:	83 c0 01             	add    $0x1,%eax
    40a5:	89 45 98             	mov    %eax,-0x68(%rbp)
    40a8:	48 8b 45 90          	mov    -0x70(%rbp),%rax
    40ac:	48 8b 00             	mov    (%rax),%rax
    40af:	48 89 45 90          	mov    %rax,-0x70(%rbp)
    40b3:	e9 62 ff ff ff       	jmp    401a <_call+0x1ba>
    40b8:	e9 00 00 00 00       	jmp    40bd <_call+0x25d>
    40bd:	48 8b 7d f0          	mov    -0x10(%rbp),%rdi
    40c1:	48 8b 75 a0          	mov    -0x60(%rbp),%rsi
    40c5:	48 8b 55 b8          	mov    -0x48(%rbp),%rdx
    40c9:	8b 4d c0             	mov    -0x40(%rbp),%ecx
    40cc:	4c 8d 45 9c          	lea    -0x64(%rbp),%r8
    40d0:	e8 ab 44 00 00       	call   8580 <load>
    40d5:	89 45 84             	mov    %eax,-0x7c(%rbp)
    40d8:	83 7d 9c ff          	cmpl   $0xffffffff,-0x64(%rbp)
    40dc:	0f 84 51 00 00 00    	je     4133 <_call+0x2d3>
    40e2:	8b 45 84             	mov    -0x7c(%rbp),%eax
    40e5:	48 8b 4d a0          	mov    -0x60(%rbp),%rcx
    40e9:	8b 49 10             	mov    0x10(%rcx),%ecx
    40ec:	83 e9 01             	sub    $0x1,%ecx
    40ef:	39 c8                	cmp    %ecx,%eax
    40f1:	0f 84 3c 00 00 00    	je     4133 <_call+0x2d3>
    40f7:	48 8b 45 a0          	mov    -0x60(%rbp),%rax
    40fb:	48 89 85 68 ff ff ff 	mov    %rax,-0x98(%rbp)
    4102:	8b 7d 84             	mov    -0x7c(%rbp),%edi
    4105:	e8 36 4c 00 00       	call   8d40 <slipI_push>
    410a:	48 8b bd 68 ff ff ff 	mov    -0x98(%rbp),%rdi
    4111:	89 45 80             	mov    %eax,-0x80(%rbp)
    4114:	8b 75 80             	mov    -0x80(%rbp),%esi
    4117:	e8 04 81 00 00       	call   c220 <slipP_addInstruction>
    411c:	48 8b 7d a0          	mov    -0x60(%rbp),%rdi
    4120:	be 01 00 00 00       	mov    $0x1,%esi
    4125:	e8 86 84 00 00       	call   c5b0 <slipP_addLocalVar>
    412a:	8b 45 9c             	mov    -0x64(%rbp),%eax
    412d:	83 c0 01             	add    $0x1,%eax
    4130:	89 45 9c             	mov    %eax,-0x64(%rbp)
    4133:	48 8b 45 a0          	mov    -0x60(%rbp),%rax
    4137:	48 89 85 60 ff ff ff 	mov    %rax,-0xa0(%rbp)
    413e:	8b 7d 98             	mov    -0x68(%rbp),%edi
    4141:	e8 2a 4c 00 00       	call   8d70 <slipI_call>
    4146:	48 8b bd 60 ff ff ff 	mov    -0xa0(%rbp),%rdi
    414d:	89 85 78 ff ff ff    	mov    %eax,-0x88(%rbp)
    4153:	8b b5 78 ff ff ff    	mov    -0x88(%rbp),%esi
    4159:	e8 c2 80 00 00       	call   c220 <slipP_addInstruction>
    415e:	48 8b 7d a0          	mov    -0x60(%rbp),%rdi
    4162:	8b 75 9c             	mov    -0x64(%rbp),%esi
    4165:	e8 76 84 00 00       	call   c5e0 <slipP_popLocalVar>
    416a:	48 8b 7d f0          	mov    -0x10(%rbp),%rdi
    416e:	48 8b 45 a0          	mov    -0x60(%rbp),%rax
    4172:	8b 70 10             	mov    0x10(%rax),%esi
    4175:	83 ee 01             	sub    $0x1,%esi
    4178:	e8 63 b0 00 00       	call   f1e0 <slipV_pushExpr>
    417d:	bf 01 00 00 00       	mov    $0x1,%edi
    4182:	be 02 00 00 00       	mov    $0x2,%esi
    4187:	e8 84 49 00 00       	call   8b10 <slip_Return>
    418c:	48 89 45 f8          	mov    %rax,-0x8(%rbp)
    4190:	48 8b 45 f8          	mov    -0x8(%rbp),%rax
    4194:	48 81 c4 a0 00 00 00 	add    $0xa0,%rsp
    419b:	5d                   	pop    %rbp
    419c:	c3                   	ret
    419d:	0f 1f 00             	nopl   (%rax)

00000000000041a0 <_quote>:
    41a0:	55                   	push   %rbp
    41a1:	48 89 e5             	mov    %rsp,%rbp
    41a4:	48 83 ec 20          	sub    $0x20,%rsp
    41a8:	48 89 7d f0          	mov    %rdi,-0x10(%rbp)
    41ac:	89 75 ec             	mov    %esi,-0x14(%rbp)
    41af:	48 8d 05 5e c2 01 00 	lea    0x1c25e(%rip),%rax        # 20414 <slip_debug_compile>
    41b6:	f6 00 01             	testb  $0x1,(%rax)
    41b9:	0f 84 11 00 00 00    	je     41d0 <_quote+0x30>
    41bf:	8b 75 ec             	mov    -0x14(%rbp),%esi
    41c2:	48 8d 3d 62 41 01 00 	lea    0x14162(%rip),%rdi        # 1832b <_IO_stdin_used+0x32b>
    41c9:	b0 00                	mov    $0x0,%al
    41cb:	e8 00 ef ff ff       	call   30d0 <printf@plt>
    41d0:	e9 00 00 00 00       	jmp    41d5 <_quote+0x35>
    41d5:	48 8b 7d f0          	mov    -0x10(%rbp),%rdi
    41d9:	48 83 c7 08          	add    $0x8,%rdi
    41dd:	8b 75 ec             	mov    -0x14(%rbp),%esi
    41e0:	e8 8b 98 00 00       	call   da70 <slipS_popValueNum>
    41e5:	bf ff ff ff ff       	mov    $0xffffffff,%edi
    41ea:	31 f6                	xor    %esi,%esi
    41ec:	e8 1f 49 00 00       	call   8b10 <slip_Return>
    41f1:	48 89 45 f8          	mov    %rax,-0x8(%rbp)
    41f5:	48 8b 45 f8          	mov    -0x8(%rbp),%rax
    41f9:	48 83 c4 20          	add    $0x20,%rsp
    41fd:	5d                   	pop    %rbp
    41fe:	c3                   	ret
    41ff:	90                   	nop

0000000000004200 <_defmacro>:
    4200:	55                   	push   %rbp
    4201:	48 89 e5             	mov    %rsp,%rbp
    4204:	48 81 ec e0 00 00 00 	sub    $0xe0,%rsp
    420b:	48 89 7d f0          	mov    %rdi,-0x10(%rbp)
    420f:	89 75 ec             	mov    %esi,-0x14(%rbp)
    4212:	83 7d ec 01          	cmpl   $0x1,-0x14(%rbp)
    4216:	0f 84 23 00 00 00    	je     423f <_defmacro+0x3f>
    421c:	48 8d 3d 41 40 01 00 	lea    0x14041(%rip),%rdi        # 18264 <_IO_stdin_used+0x264>
    4223:	b0 00                	mov    $0x0,%al
    4225:	e8 a6 ee ff ff       	call   30d0 <printf@plt>
    422a:	bf ff ff ff ff       	mov    $0xffffffff,%edi
    422f:	31 f6                	xor    %esi,%esi
    4231:	e8 da 48 00 00       	call   8b10 <slip_Return>
    4236:	48 89 45 f8          	mov    %rax,-0x8(%rbp)
    423a:	e9 e8 03 00 00       	jmp    4627 <_defmacro+0x427>
    423f:	83 7d ec 01          	cmpl   $0x1,-0x14(%rbp)
    4243:	0f 8c 05 00 00 00    	jl     424e <_defmacro+0x4e>
    4249:	e9 1f 00 00 00       	jmp    426d <_defmacro+0x6d>
    424e:	48 8d 3d 91 3f 01 00 	lea    0x13f91(%rip),%rdi        # 181e6 <_IO_stdin_used+0x1e6>
    4255:	48 8d 35 93 3f 01 00 	lea    0x13f93(%rip),%rsi        # 181ef <_IO_stdin_used+0x1ef>
    425c:	ba 5e 01 00 00       	mov    $0x15e,%edx
    4261:	48 8d 0d d4 40 01 00 	lea    0x140d4(%rip),%rcx        # 1833c <_IO_stdin_used+0x33c>
    4268:	e8 83 ee ff ff       	call   30f0 <__assert_fail@plt>
    426d:	c7 45 e8 01 00 00 00 	movl   $0x1,-0x18(%rbp)
    4274:	48 8b 7d f0          	mov    -0x10(%rbp),%rdi
    4278:	31 f6                	xor    %esi,%esi
    427a:	2b 75 ec             	sub    -0x14(%rbp),%esi
    427d:	e8 3e ac 00 00       	call   eec0 <slipV_getValue>
    4282:	48 89 45 d8          	mov    %rax,-0x28(%rbp)
    4286:	89 55 e0             	mov    %edx,-0x20(%rbp)
    4289:	48 8b 7d f0          	mov    -0x10(%rbp),%rdi
    428d:	48 83 c7 08          	add    $0x8,%rdi
    4291:	8b 75 ec             	mov    -0x14(%rbp),%esi
    4294:	e8 d7 97 00 00       	call   da70 <slipS_popValueNum>
    4299:	81 7d e0 00 01 00 00 	cmpl   $0x100,-0x20(%rbp)
    42a0:	0f 84 23 00 00 00    	je     42c9 <_defmacro+0xc9>
    42a6:	48 8d 3d fa 3f 01 00 	lea    0x13ffa(%rip),%rdi        # 182a7 <_IO_stdin_used+0x2a7>
    42ad:	b0 00                	mov    $0x0,%al
    42af:	e8 1c ee ff ff       	call   30d0 <printf@plt>
    42b4:	bf ff ff ff ff       	mov    $0xffffffff,%edi
    42b9:	31 f6                	xor    %esi,%esi
    42bb:	e8 50 48 00 00       	call   8b10 <slip_Return>
    42c0:	48 89 45 f8          	mov    %rax,-0x8(%rbp)
    42c4:	e9 5e 03 00 00       	jmp    4627 <_defmacro+0x427>
    42c9:	48 8b 45 d8          	mov    -0x28(%rbp),%rax
    42cd:	48 89 45 d0          	mov    %rax,-0x30(%rbp)
    42d1:	48 8b 45 d0          	mov    -0x30(%rbp),%rax
    42d5:	48 89 45 c8          	mov    %rax,-0x38(%rbp)
    42d9:	48 8d 7d b8          	lea    -0x48(%rbp),%rdi
    42dd:	31 f6                	xor    %esi,%esi
    42df:	ba 10 00 00 00       	mov    $0x10,%edx
    42e4:	e8 17 ee ff ff       	call   3100 <memset@plt>
    42e9:	48 8d 7d c8          	lea    -0x38(%rbp),%rdi
    42ed:	be 08 00 00 00       	mov    $0x8,%esi
    42f2:	48 8d 55 b8          	lea    -0x48(%rbp),%rdx
    42f6:	e8 55 7b 00 00       	call   be50 <slipL_pullListArgument>
    42fb:	48 8d 7d a8          	lea    -0x58(%rbp),%rdi
    42ff:	31 f6                	xor    %esi,%esi
    4301:	ba 10 00 00 00       	mov    $0x10,%edx
    4306:	e8 f5 ed ff ff       	call   3100 <memset@plt>
    430b:	48 8d 7d c8          	lea    -0x38(%rbp),%rdi
    430f:	be 00 01 00 00       	mov    $0x100,%esi
    4314:	48 8d 55 a8          	lea    -0x58(%rbp),%rdx
    4318:	e8 33 7b 00 00       	call   be50 <slipL_pullListArgument>
    431d:	83 f8 00             	cmp    $0x0,%eax
    4320:	0f 84 15 00 00 00    	je     433b <_defmacro+0x13b>
    4326:	bf ff ff ff ff       	mov    $0xffffffff,%edi
    432b:	31 f6                	xor    %esi,%esi
    432d:	e8 de 47 00 00       	call   8b10 <slip_Return>
    4332:	48 89 45 f8          	mov    %rax,-0x8(%rbp)
    4336:	e9 ec 02 00 00       	jmp    4627 <_defmacro+0x427>
    433b:	48 8d 7d 98          	lea    -0x68(%rbp),%rdi
    433f:	31 f6                	xor    %esi,%esi
    4341:	ba 10 00 00 00       	mov    $0x10,%edx
    4346:	e8 b5 ed ff ff       	call   3100 <memset@plt>
    434b:	48 8d 7d c8          	lea    -0x38(%rbp),%rdi
    434f:	be 00 01 00 00       	mov    $0x100,%esi
    4354:	48 8d 55 98          	lea    -0x68(%rbp),%rdx
    4358:	e8 f3 7a 00 00       	call   be50 <slipL_pullListArgument>
    435d:	83 f8 00             	cmp    $0x0,%eax
    4360:	0f 84 15 00 00 00    	je     437b <_defmacro+0x17b>
    4366:	bf ff ff ff ff       	mov    $0xffffffff,%edi
    436b:	31 f6                	xor    %esi,%esi
    436d:	e8 9e 47 00 00       	call   8b10 <slip_Return>
    4372:	48 89 45 f8          	mov    %rax,-0x8(%rbp)
    4376:	e9 ac 02 00 00       	jmp    4627 <_defmacro+0x427>
    437b:	e9 00 00 00 00       	jmp    4380 <_defmacro+0x180>
    4380:	48 8d 05 8d c0 01 00 	lea    0x1c08d(%rip),%rax        # 20414 <slip_debug_compile>
    4387:	f6 00 01             	testb  $0x1,(%rax)
    438a:	0f 84 12 00 00 00    	je     43a2 <_defmacro+0x1a2>
    4390:	48 8b 75 b8          	mov    -0x48(%rbp),%rsi
    4394:	48 8d 3d c2 3f 01 00 	lea    0x13fc2(%rip),%rdi        # 1835d <_IO_stdin_used+0x35d>
    439b:	b0 00                	mov    $0x0,%al
    439d:	e8 2e ed ff ff       	call   30d0 <printf@plt>
    43a2:	e9 00 00 00 00       	jmp    43a7 <_defmacro+0x1a7>
    43a7:	48 8d 05 66 c0 01 00 	lea    0x1c066(%rip),%rax        # 20414 <slip_debug_compile>
    43ae:	f6 00 01             	testb  $0x1,(%rax)
    43b1:	0f 84 2c 00 00 00    	je     43e3 <_defmacro+0x1e3>
    43b7:	48 8b 7d f0          	mov    -0x10(%rbp),%rdi
    43bb:	48 8b 75 b8          	mov    -0x48(%rbp),%rsi
    43bf:	8b 55 c0             	mov    -0x40(%rbp),%edx
    43c2:	48 8b 4d a8          	mov    -0x58(%rbp),%rcx
    43c6:	44 8b 45 b0          	mov    -0x50(%rbp),%r8d
    43ca:	48 8d 45 98          	lea    -0x68(%rbp),%rax
    43ce:	4c 8b 08             	mov    (%rax),%r9
    43d1:	4c 89 0c 24          	mov    %r9,(%rsp)
    43d5:	48 8b 40 08          	mov    0x8(%rax),%rax
    43d9:	48 89 44 24 08       	mov    %rax,0x8(%rsp)
    43de:	e8 3d 48 00 00       	call   8c20 <check_func>
    43e3:	b0 00                	mov    $0x0,%al
    43e5:	e8 c6 7d 00 00       	call   c1b0 <slipP_createProto>
    43ea:	48 89 45 90          	mov    %rax,-0x70(%rbp)
    43ee:	48 8b 75 90          	mov    -0x70(%rbp),%rsi
    43f2:	48 8d 7d 80          	lea    -0x80(%rbp),%rdi
    43f6:	e8 05 9e 00 00       	call   e200 <slipV_setValueMacro>
    43fb:	48 8b 7d f0          	mov    -0x10(%rbp),%rdi
    43ff:	be ff ff ff ff       	mov    $0xffffffff,%esi
    4404:	e8 e7 70 00 00       	call   b4f0 <slipC_getFunc>
    4409:	48 89 85 78 ff ff ff 	mov    %rax,-0x88(%rbp)
    4410:	48 8b bd 78 ff ff ff 	mov    -0x88(%rbp),%rdi
    4417:	48 8b 75 90          	mov    -0x70(%rbp),%rsi
    441b:	e8 c0 80 00 00       	call   c4e0 <slipP_addLocalFunc>
    4420:	83 7d c0 00          	cmpl   $0x0,-0x40(%rbp)
    4424:	0f 84 14 00 00 00    	je     443e <_defmacro+0x23e>
    442a:	48 8b 7d f0          	mov    -0x10(%rbp),%rdi
    442e:	48 8b 75 b8          	mov    -0x48(%rbp),%rsi
    4432:	48 8b 55 80          	mov    -0x80(%rbp),%rdx
    4436:	8b 4d 88             	mov    -0x78(%rbp),%ecx
    4439:	e8 82 6f 00 00       	call   b3c0 <slipC_setID>
    443e:	c7 85 74 ff ff ff 00 	movl   $0x0,-0x8c(%rbp)
    4445:	00 00 00 
    4448:	81 7d b0 00 01 00 00 	cmpl   $0x100,-0x50(%rbp)
    444f:	0f 85 ba 00 00 00    	jne    450f <_defmacro+0x30f>
    4455:	48 8b 45 f0          	mov    -0x10(%rbp),%rax
    4459:	48 89 85 40 ff ff ff 	mov    %rax,-0xc0(%rbp)
    4460:	48 8b 45 f0          	mov    -0x10(%rbp),%rax
    4464:	48 8b 78 48          	mov    0x48(%rax),%rdi
    4468:	e8 93 8a 00 00       	call   cf00 <slipD_table>
    446d:	48 8b 40 08          	mov    0x8(%rax),%rax
    4471:	48 8b 4d f0          	mov    -0x10(%rbp),%rcx
    4475:	48 8b 79 48          	mov    0x48(%rcx),%rdi
    4479:	ff d0                	call   *%rax
    447b:	48 8b bd 40 ff ff ff 	mov    -0xc0(%rbp),%rdi
    4482:	48 89 c6             	mov    %rax,%rsi
    4485:	e8 c6 6f 00 00       	call   b450 <slipC_pushEnvStack>
    448a:	48 8b 45 a8          	mov    -0x58(%rbp),%rax
    448e:	48 89 85 68 ff ff ff 	mov    %rax,-0x98(%rbp)
    4495:	48 83 bd 68 ff ff ff 	cmpq   $0x0,-0x98(%rbp)
    449c:	00 
    449d:	0f 84 67 00 00 00    	je     450a <_defmacro+0x30a>
    44a3:	48 8b 85 68 ff ff ff 	mov    -0x98(%rbp),%rax
    44aa:	48 8b 40 08          	mov    0x8(%rax),%rax
    44ae:	48 89 85 60 ff ff ff 	mov    %rax,-0xa0(%rbp)
    44b5:	48 63 b5 74 ff ff ff 	movslq -0x8c(%rbp),%rsi
    44bc:	48 8d bd 50 ff ff ff 	lea    -0xb0(%rbp),%rdi
    44c3:	e8 28 9e 00 00       	call   e2f0 <slipV_setValueInt>
    44c8:	48 8b 7d f0          	mov    -0x10(%rbp),%rdi
    44cc:	48 8b b5 60 ff ff ff 	mov    -0xa0(%rbp),%rsi
    44d3:	48 8b 95 50 ff ff ff 	mov    -0xb0(%rbp),%rdx
    44da:	8b 8d 58 ff ff ff    	mov    -0xa8(%rbp),%ecx
    44e0:	e8 db 6e 00 00       	call   b3c0 <slipC_setID>
    44e5:	8b 85 74 ff ff ff    	mov    -0x8c(%rbp),%eax
    44eb:	83 c0 01             	add    $0x1,%eax
    44ee:	89 85 74 ff ff ff    	mov    %eax,-0x8c(%rbp)
    44f4:	48 8b 85 68 ff ff ff 	mov    -0x98(%rbp),%rax
    44fb:	48 8b 00             	mov    (%rax),%rax
    44fe:	48 89 85 68 ff ff ff 	mov    %rax,-0x98(%rbp)
    4505:	e9 8b ff ff ff       	jmp    4495 <_defmacro+0x295>
    450a:	e9 00 00 00 00       	jmp    450f <_defmacro+0x30f>
    450f:	48 8b 7d 90          	mov    -0x70(%rbp),%rdi
    4513:	8b b5 74 ff ff ff    	mov    -0x8c(%rbp),%esi
    4519:	e8 92 7f 00 00       	call   c4b0 <slipP_setArgs>
    451e:	48 8b 45 f0          	mov    -0x10(%rbp),%rax
    4522:	48 89 85 38 ff ff ff 	mov    %rax,-0xc8(%rbp)
    4529:	48 8b 45 f0          	mov    -0x10(%rbp),%rax
    452d:	48 8b 78 48          	mov    0x48(%rax),%rdi
    4531:	e8 ca 89 00 00       	call   cf00 <slipD_table>
    4536:	48 8b 40 08          	mov    0x8(%rax),%rax
    453a:	48 8b 4d f0          	mov    -0x10(%rbp),%rcx
    453e:	48 8b 79 48          	mov    0x48(%rcx),%rdi
    4542:	ff d0                	call   *%rax
    4544:	48 8b bd 38 ff ff ff 	mov    -0xc8(%rbp),%rdi
    454b:	48 89 c6             	mov    %rax,%rsi
    454e:	e8 fd 6e 00 00       	call   b450 <slipC_pushEnvStack>
    4553:	48 8b 7d f0          	mov    -0x10(%rbp),%rdi
    4557:	48 8b 75 90          	mov    -0x70(%rbp),%rsi
    455b:	e8 60 6b 00 00       	call   b0c0 <slipC_pushFuncStack>
    4560:	48 8b 7d f0          	mov    -0x10(%rbp),%rdi
    4564:	48 8b 75 98          	mov    -0x68(%rbp),%rsi
    4568:	31 d2                	xor    %edx,%edx
    456a:	e8 91 c4 00 00       	call   10a00 <slipV_callList>
    456f:	89 85 4c ff ff ff    	mov    %eax,-0xb4(%rbp)
    4575:	83 bd 4c ff ff ff 00 	cmpl   $0x0,-0xb4(%rbp)
    457c:	0f 8e 13 00 00 00    	jle    4595 <_defmacro+0x395>
    4582:	48 8b 7d f0          	mov    -0x10(%rbp),%rdi
    4586:	48 83 c7 08          	add    $0x8,%rdi
    458a:	8b b5 4c ff ff ff    	mov    -0xb4(%rbp),%esi
    4590:	e8 db 94 00 00       	call   da70 <slipS_popValueNum>
    4595:	48 8b 7d f0          	mov    -0x10(%rbp),%rdi
    4599:	e8 f2 6e 00 00       	call   b490 <slipC_popEnvStack>
    459e:	48 8b 7d f0          	mov    -0x10(%rbp),%rdi
    45a2:	e8 59 6b 00 00       	call   b100 <slipC_popFuncStack>
    45a7:	81 7d b0 00 01 00 00 	cmpl   $0x100,-0x50(%rbp)
    45ae:	0f 85 09 00 00 00    	jne    45bd <_defmacro+0x3bd>
    45b4:	48 8b 7d f0          	mov    -0x10(%rbp),%rdi
    45b8:	e8 d3 6e 00 00       	call   b490 <slipC_popEnvStack>
    45bd:	48 8b 45 90          	mov    -0x70(%rbp),%rax
    45c1:	48 89 85 30 ff ff ff 	mov    %rax,-0xd0(%rbp)
    45c8:	31 ff                	xor    %edi,%edi
    45ca:	e8 41 47 00 00       	call   8d10 <slipI_return>
    45cf:	48 8b bd 30 ff ff ff 	mov    -0xd0(%rbp),%rdi
    45d6:	89 85 48 ff ff ff    	mov    %eax,-0xb8(%rbp)
    45dc:	8b b5 48 ff ff ff    	mov    -0xb8(%rbp),%esi
    45e2:	e8 39 7c 00 00       	call   c220 <slipP_addInstruction>
    45e7:	48 8d 05 26 be 01 00 	lea    0x1be26(%rip),%rax        # 20414 <slip_debug_compile>
    45ee:	f6 00 01             	testb  $0x1,(%rax)
    45f1:	0f 84 09 00 00 00    	je     4600 <_defmacro+0x400>
    45f7:	48 8b 7d 90          	mov    -0x70(%rbp),%rdi
    45fb:	e8 00 80 00 00       	call   c600 <slipP_dump>
    4600:	48 8b 7d f0          	mov    -0x10(%rbp),%rdi
    4604:	48 83 c7 08          	add    $0x8,%rdi
    4608:	48 8b 75 80          	mov    -0x80(%rbp),%rsi
    460c:	8b 55 88             	mov    -0x78(%rbp),%edx
    460f:	e8 bc 91 00 00       	call   d7d0 <slipS_pushValue>
    4614:	bf 01 00 00 00       	mov    $0x1,%edi
    4619:	be 03 00 00 00       	mov    $0x3,%esi
    461e:	e8 ed 44 00 00       	call   8b10 <slip_Return>
    4623:	48 89 45 f8          	mov    %rax,-0x8(%rbp)
    4627:	48 8b 45 f8          	mov    -0x8(%rbp),%rax
    462b:	48 81 c4 e0 00 00 00 	add    $0xe0,%rsp
    4632:	5d                   	pop    %rbp
    4633:	c3                   	ret
    4634:	66 2e 0f 1f 84 00 00 	cs nopw 0x0(%rax,%rax,1)
    463b:	00 00 00 
    463e:	66 90                	xchg   %ax,%ax

0000000000004640 <_return>:
    4640:	55                   	push   %rbp
    4641:	48 89 e5             	mov    %rsp,%rbp
    4644:	48 81 ec b0 00 00 00 	sub    $0xb0,%rsp
    464b:	48 89 7d f0          	mov    %rdi,-0x10(%rbp)
    464f:	89 75 ec             	mov    %esi,-0x14(%rbp)
    4652:	83 7d ec 01          	cmpl   $0x1,-0x14(%rbp)
    4656:	0f 84 23 00 00 00    	je     467f <_return+0x3f>
    465c:	48 8d 3d 01 3c 01 00 	lea    0x13c01(%rip),%rdi        # 18264 <_IO_stdin_used+0x264>
    4663:	b0 00                	mov    $0x0,%al
    4665:	e8 66 ea ff ff       	call   30d0 <printf@plt>
    466a:	bf ff ff ff ff       	mov    $0xffffffff,%edi
    466f:	31 f6                	xor    %esi,%esi
    4671:	e8 9a 44 00 00       	call   8b10 <slip_Return>
    4676:	48 89 45 f8          	mov    %rax,-0x8(%rbp)
    467a:	e9 3f 03 00 00       	jmp    49be <_return+0x37e>
    467f:	83 7d ec 01          	cmpl   $0x1,-0x14(%rbp)
    4683:	0f 8c 05 00 00 00    	jl     468e <_return+0x4e>
    4689:	e9 1f 00 00 00       	jmp    46ad <_return+0x6d>
    468e:	48 8d 3d 51 3b 01 00 	lea    0x13b51(%rip),%rdi        # 181e6 <_IO_stdin_used+0x1e6>
    4695:	48 8d 35 53 3b 01 00 	lea    0x13b53(%rip),%rsi        # 181ef <_IO_stdin_used+0x1ef>
    469c:	ba c0 01 00 00       	mov    $0x1c0,%edx
    46a1:	48 8d 0d c9 3c 01 00 	lea    0x13cc9(%rip),%rcx        # 18371 <_IO_stdin_used+0x371>
    46a8:	e8 43 ea ff ff       	call   30f0 <__assert_fail@plt>
    46ad:	c7 45 e8 01 00 00 00 	movl   $0x1,-0x18(%rbp)
    46b4:	48 8b 7d f0          	mov    -0x10(%rbp),%rdi
    46b8:	31 f6                	xor    %esi,%esi
    46ba:	2b 75 ec             	sub    -0x14(%rbp),%esi
    46bd:	e8 fe a7 00 00       	call   eec0 <slipV_getValue>
    46c2:	48 89 45 d8          	mov    %rax,-0x28(%rbp)
    46c6:	89 55 e0             	mov    %edx,-0x20(%rbp)
    46c9:	48 8b 7d f0          	mov    -0x10(%rbp),%rdi
    46cd:	48 83 c7 08          	add    $0x8,%rdi
    46d1:	8b 75 ec             	mov    -0x14(%rbp),%esi
    46d4:	e8 97 93 00 00       	call   da70 <slipS_popValueNum>
    46d9:	81 7d e0 00 01 00 00 	cmpl   $0x100,-0x20(%rbp)
    46e0:	0f 84 23 00 00 00    	je     4709 <_return+0xc9>
    46e6:	48 8d 3d ba 3b 01 00 	lea    0x13bba(%rip),%rdi        # 182a7 <_IO_stdin_used+0x2a7>
    46ed:	b0 00                	mov    $0x0,%al
    46ef:	e8 dc e9 ff ff       	call   30d0 <printf@plt>
    46f4:	bf ff ff ff ff       	mov    $0xffffffff,%edi
    46f9:	31 f6                	xor    %esi,%esi
    46fb:	e8 10 44 00 00       	call   8b10 <slip_Return>
    4700:	48 89 45 f8          	mov    %rax,-0x8(%rbp)
    4704:	e9 b5 02 00 00       	jmp    49be <_return+0x37e>
    4709:	48 8b 45 d8          	mov    -0x28(%rbp),%rax
    470d:	48 89 45 d0          	mov    %rax,-0x30(%rbp)
    4711:	48 8b 45 d0          	mov    -0x30(%rbp),%rax
    4715:	48 89 45 c8          	mov    %rax,-0x38(%rbp)
    4719:	48 8d 7d b8          	lea    -0x48(%rbp),%rdi
    471d:	31 f6                	xor    %esi,%esi
    471f:	ba 10 00 00 00       	mov    $0x10,%edx
    4724:	e8 d7 e9 ff ff       	call   3100 <memset@plt>
    4729:	48 8d 7d c8          	lea    -0x38(%rbp),%rdi
    472d:	be 0f 01 00 00       	mov    $0x10f,%esi
    4732:	48 8d 55 b8          	lea    -0x48(%rbp),%rdx
    4736:	e8 15 77 00 00       	call   be50 <slipL_pullListArgument>
    473b:	83 f8 00             	cmp    $0x0,%eax
    473e:	0f 84 15 00 00 00    	je     4759 <_return+0x119>
    4744:	bf ff ff ff ff       	mov    $0xffffffff,%edi
    4749:	31 f6                	xor    %esi,%esi
    474b:	e8 c0 43 00 00       	call   8b10 <slip_Return>
    4750:	48 89 45 f8          	mov    %rax,-0x8(%rbp)
    4754:	e9 65 02 00 00       	jmp    49be <_return+0x37e>
    4759:	e9 00 00 00 00       	jmp    475e <_return+0x11e>
    475e:	48 8d 05 af bc 01 00 	lea    0x1bcaf(%rip),%rax        # 20414 <slip_debug_compile>
    4765:	f6 00 01             	testb  $0x1,(%rax)
    4768:	0f 84 0e 00 00 00    	je     477c <_return+0x13c>
    476e:	48 8d 3d 1b 3c 01 00 	lea    0x13c1b(%rip),%rdi        # 18390 <_IO_stdin_used+0x390>
    4775:	b0 00                	mov    $0x0,%al
    4777:	e8 54 e9 ff ff       	call   30d0 <printf@plt>
    477c:	e9 00 00 00 00       	jmp    4781 <_return+0x141>
    4781:	48 8d 05 8c bc 01 00 	lea    0x1bc8c(%rip),%rax        # 20414 <slip_debug_compile>
    4788:	f6 00 01             	testb  $0x1,(%rax)
    478b:	0f 84 0c 00 00 00    	je     479d <_return+0x15d>
    4791:	48 8b 7d b8          	mov    -0x48(%rbp),%rdi
    4795:	8b 75 c0             	mov    -0x40(%rbp),%esi
    4798:	e8 93 a1 00 00       	call   e930 <slipV_printValue>
    479d:	48 8b 7d f0          	mov    -0x10(%rbp),%rdi
    47a1:	be ff ff ff ff       	mov    $0xffffffff,%esi
    47a6:	e8 45 6d 00 00       	call   b4f0 <slipC_getFunc>
    47ab:	48 89 45 b0          	mov    %rax,-0x50(%rbp)
    47af:	8b 45 c0             	mov    -0x40(%rbp),%eax
    47b2:	89 85 74 ff ff ff    	mov    %eax,-0x8c(%rbp)
    47b8:	83 e8 03             	sub    $0x3,%eax
    47bb:	0f 82 43 00 00 00    	jb     4804 <_return+0x1c4>
    47c1:	e9 00 00 00 00       	jmp    47c6 <_return+0x186>
    47c6:	8b 85 74 ff ff ff    	mov    -0x8c(%rbp),%eax
    47cc:	83 e8 04             	sub    $0x4,%eax
    47cf:	0f 84 2f 00 00 00    	je     4804 <_return+0x1c4>
    47d5:	e9 00 00 00 00       	jmp    47da <_return+0x19a>
    47da:	8b 85 74 ff ff ff    	mov    -0x8c(%rbp),%eax
    47e0:	83 e8 08             	sub    $0x8,%eax
    47e3:	0f 84 1b 00 00 00    	je     4804 <_return+0x1c4>
    47e9:	e9 00 00 00 00       	jmp    47ee <_return+0x1ae>
    47ee:	8b 85 74 ff ff ff    	mov    -0x8c(%rbp),%eax
    47f4:	2d 00 01 00 00       	sub    $0x100,%eax
    47f9:	0f 84 ba 00 00 00    	je     48b9 <_return+0x279>
    47ff:	e9 a5 01 00 00       	jmp    49a9 <_return+0x369>
    4804:	c7 45 ac 00 00 00 00 	movl   $0x0,-0x54(%rbp)
    480b:	48 8b 7d f0          	mov    -0x10(%rbp),%rdi
    480f:	48 8b 75 b0          	mov    -0x50(%rbp),%rsi
    4813:	48 8b 55 b8          	mov    -0x48(%rbp),%rdx
    4817:	8b 4d c0             	mov    -0x40(%rbp),%ecx
    481a:	4c 8d 45 ac          	lea    -0x54(%rbp),%r8
    481e:	e8 5d 3d 00 00       	call   8580 <load>
    4823:	89 45 a8             	mov    %eax,-0x58(%rbp)
    4826:	83 7d a8 ff          	cmpl   $0xffffffff,-0x58(%rbp)
    482a:	0f 84 51 00 00 00    	je     4881 <_return+0x241>
    4830:	8b 45 a8             	mov    -0x58(%rbp),%eax
    4833:	48 8b 4d b0          	mov    -0x50(%rbp),%rcx
    4837:	8b 49 10             	mov    0x10(%rcx),%ecx
    483a:	83 e9 01             	sub    $0x1,%ecx
    483d:	39 c8                	cmp    %ecx,%eax
    483f:	0f 84 3c 00 00 00    	je     4881 <_return+0x241>
    4845:	48 8b 45 b0          	mov    -0x50(%rbp),%rax
    4849:	48 89 85 68 ff ff ff 	mov    %rax,-0x98(%rbp)
    4850:	8b 7d a8             	mov    -0x58(%rbp),%edi
    4853:	e8 e8 44 00 00       	call   8d40 <slipI_push>
    4858:	48 8b bd 68 ff ff ff 	mov    -0x98(%rbp),%rdi
    485f:	89 45 a0             	mov    %eax,-0x60(%rbp)
    4862:	8b 75 a0             	mov    -0x60(%rbp),%esi
    4865:	e8 b6 79 00 00       	call   c220 <slipP_addInstruction>
    486a:	48 8b 7d b0          	mov    -0x50(%rbp),%rdi
    486e:	be 01 00 00 00       	mov    $0x1,%esi
    4873:	e8 38 7d 00 00       	call   c5b0 <slipP_addLocalVar>
    4878:	8b 45 ac             	mov    -0x54(%rbp),%eax
    487b:	83 c0 01             	add    $0x1,%eax
    487e:	89 45 ac             	mov    %eax,-0x54(%rbp)
    4881:	48 8b 45 b0          	mov    -0x50(%rbp),%rax
    4885:	48 89 85 60 ff ff ff 	mov    %rax,-0xa0(%rbp)
    488c:	bf 01 00 00 00       	mov    $0x1,%edi
    4891:	e8 7a 44 00 00       	call   8d10 <slipI_return>
    4896:	48 8b bd 60 ff ff ff 	mov    -0xa0(%rbp),%rdi
    489d:	89 45 98             	mov    %eax,-0x68(%rbp)
    48a0:	8b 75 98             	mov    -0x68(%rbp),%esi
    48a3:	e8 78 79 00 00       	call   c220 <slipP_addInstruction>
    48a8:	48 8b 7d b0          	mov    -0x50(%rbp),%rdi
    48ac:	8b 75 ac             	mov    -0x54(%rbp),%esi
    48af:	e8 2c 7d 00 00       	call   c5e0 <slipP_popLocalVar>
    48b4:	e9 f5 00 00 00       	jmp    49ae <_return+0x36e>
    48b9:	c7 45 94 00 00 00 00 	movl   $0x0,-0x6c(%rbp)
    48c0:	c7 45 90 00 00 00 00 	movl   $0x0,-0x70(%rbp)
    48c7:	48 8b 45 b8          	mov    -0x48(%rbp),%rax
    48cb:	48 89 45 88          	mov    %rax,-0x78(%rbp)
    48cf:	48 83 7d 88 00       	cmpq   $0x0,-0x78(%rbp)
    48d4:	0f 84 93 00 00 00    	je     496d <_return+0x32d>
    48da:	48 8b 7d f0          	mov    -0x10(%rbp),%rdi
    48de:	48 8b 75 b0          	mov    -0x50(%rbp),%rsi
    48e2:	48 8b 45 88          	mov    -0x78(%rbp),%rax
    48e6:	48 8b 50 08          	mov    0x8(%rax),%rdx
    48ea:	8b 48 10             	mov    0x10(%rax),%ecx
    48ed:	4c 8d 45 94          	lea    -0x6c(%rbp),%r8
    48f1:	e8 8a 3c 00 00       	call   8580 <load>
    48f6:	89 45 84             	mov    %eax,-0x7c(%rbp)
    48f9:	83 7d 84 ff          	cmpl   $0xffffffff,-0x7c(%rbp)
    48fd:	0f 84 51 00 00 00    	je     4954 <_return+0x314>
    4903:	8b 45 84             	mov    -0x7c(%rbp),%eax
    4906:	48 8b 4d b0          	mov    -0x50(%rbp),%rcx
    490a:	8b 49 10             	mov    0x10(%rcx),%ecx
    490d:	83 e9 01             	sub    $0x1,%ecx
    4910:	39 c8                	cmp    %ecx,%eax
    4912:	0f 84 3c 00 00 00    	je     4954 <_return+0x314>
    4918:	48 8b 45 b0          	mov    -0x50(%rbp),%rax
    491c:	48 89 85 58 ff ff ff 	mov    %rax,-0xa8(%rbp)
    4923:	8b 7d 84             	mov    -0x7c(%rbp),%edi
    4926:	e8 15 44 00 00       	call   8d40 <slipI_push>
    492b:	48 8b bd 58 ff ff ff 	mov    -0xa8(%rbp),%rdi
    4932:	89 45 80             	mov    %eax,-0x80(%rbp)
    4935:	8b 75 80             	mov    -0x80(%rbp),%esi
    4938:	e8 e3 78 00 00       	call   c220 <slipP_addInstruction>
    493d:	48 8b 7d b0          	mov    -0x50(%rbp),%rdi
    4941:	be 01 00 00 00       	mov    $0x1,%esi
    4946:	e8 65 7c 00 00       	call   c5b0 <slipP_addLocalVar>
    494b:	8b 45 94             	mov    -0x6c(%rbp),%eax
    494e:	83 c0 01             	add    $0x1,%eax
    4951:	89 45 94             	mov    %eax,-0x6c(%rbp)
    4954:	8b 45 90             	mov    -0x70(%rbp),%eax
    4957:	83 c0 01             	add    $0x1,%eax
    495a:	89 45 90             	mov    %eax,-0x70(%rbp)
    495d:	48 8b 45 88          	mov    -0x78(%rbp),%rax
    4961:	48 8b 00             	mov    (%rax),%rax
    4964:	48 89 45 88          	mov    %rax,-0x78(%rbp)
    4968:	e9 62 ff ff ff       	jmp    48cf <_return+0x28f>
    496d:	48 8b 45 b0          	mov    -0x50(%rbp),%rax
    4971:	48 89 85 50 ff ff ff 	mov    %rax,-0xb0(%rbp)
    4978:	8b 7d 90             	mov    -0x70(%rbp),%edi
    497b:	e8 90 43 00 00       	call   8d10 <slipI_return>
    4980:	48 8b bd 50 ff ff ff 	mov    -0xb0(%rbp),%rdi
    4987:	89 85 78 ff ff ff    	mov    %eax,-0x88(%rbp)
    498d:	8b b5 78 ff ff ff    	mov    -0x88(%rbp),%esi
    4993:	e8 88 78 00 00       	call   c220 <slipP_addInstruction>
    4998:	48 8b 7d b0          	mov    -0x50(%rbp),%rdi
    499c:	8b 75 94             	mov    -0x6c(%rbp),%esi
    499f:	e8 3c 7c 00 00       	call   c5e0 <slipP_popLocalVar>
    49a4:	e9 05 00 00 00       	jmp    49ae <_return+0x36e>
    49a9:	e9 00 00 00 00       	jmp    49ae <_return+0x36e>
    49ae:	31 ff                	xor    %edi,%edi
    49b0:	be 01 00 00 00       	mov    $0x1,%esi
    49b5:	e8 56 41 00 00       	call   8b10 <slip_Return>
    49ba:	48 89 45 f8          	mov    %rax,-0x8(%rbp)
    49be:	48 8b 45 f8          	mov    -0x8(%rbp),%rax
    49c2:	48 81 c4 b0 00 00 00 	add    $0xb0,%rsp
    49c9:	5d                   	pop    %rbp
    49ca:	c3                   	ret
    49cb:	0f 1f 44 00 00       	nopl   0x0(%rax,%rax,1)

00000000000049d0 <_if>:
    49d0:	55                   	push   %rbp
    49d1:	48 89 e5             	mov    %rsp,%rbp
    49d4:	48 81 ec d0 00 00 00 	sub    $0xd0,%rsp
    49db:	48 89 7d f0          	mov    %rdi,-0x10(%rbp)
    49df:	89 75 ec             	mov    %esi,-0x14(%rbp)
    49e2:	83 7d ec 01          	cmpl   $0x1,-0x14(%rbp)
    49e6:	0f 84 23 00 00 00    	je     4a0f <_if+0x3f>
    49ec:	48 8d 3d 71 38 01 00 	lea    0x13871(%rip),%rdi        # 18264 <_IO_stdin_used+0x264>
    49f3:	b0 00                	mov    $0x0,%al
    49f5:	e8 d6 e6 ff ff       	call   30d0 <printf@plt>
    49fa:	bf ff ff ff ff       	mov    $0xffffffff,%edi
    49ff:	31 f6                	xor    %esi,%esi
    4a01:	e8 0a 41 00 00       	call   8b10 <slip_Return>
    4a06:	48 89 45 f8          	mov    %rax,-0x8(%rbp)
    4a0a:	e9 14 04 00 00       	jmp    4e23 <_if+0x453>
    4a0f:	83 7d ec 01          	cmpl   $0x1,-0x14(%rbp)
    4a13:	0f 8c 05 00 00 00    	jl     4a1e <_if+0x4e>
    4a19:	e9 1f 00 00 00       	jmp    4a3d <_if+0x6d>
    4a1e:	48 8d 3d c1 37 01 00 	lea    0x137c1(%rip),%rdi        # 181e6 <_IO_stdin_used+0x1e6>
    4a25:	48 8d 35 c3 37 01 00 	lea    0x137c3(%rip),%rsi        # 181ef <_IO_stdin_used+0x1ef>
    4a2c:	ba ff 01 00 00       	mov    $0x1ff,%edx
    4a31:	48 8d 0d 67 39 01 00 	lea    0x13967(%rip),%rcx        # 1839f <_IO_stdin_used+0x39f>
    4a38:	e8 b3 e6 ff ff       	call   30f0 <__assert_fail@plt>
    4a3d:	c7 45 e8 01 00 00 00 	movl   $0x1,-0x18(%rbp)
    4a44:	48 8b 7d f0          	mov    -0x10(%rbp),%rdi
    4a48:	31 f6                	xor    %esi,%esi
    4a4a:	2b 75 ec             	sub    -0x14(%rbp),%esi
    4a4d:	e8 6e a4 00 00       	call   eec0 <slipV_getValue>
    4a52:	48 89 45 d8          	mov    %rax,-0x28(%rbp)
    4a56:	89 55 e0             	mov    %edx,-0x20(%rbp)
    4a59:	48 8b 7d f0          	mov    -0x10(%rbp),%rdi
    4a5d:	48 83 c7 08          	add    $0x8,%rdi
    4a61:	8b 75 ec             	mov    -0x14(%rbp),%esi
    4a64:	e8 07 90 00 00       	call   da70 <slipS_popValueNum>
    4a69:	81 7d e0 00 01 00 00 	cmpl   $0x100,-0x20(%rbp)
    4a70:	0f 84 23 00 00 00    	je     4a99 <_if+0xc9>
    4a76:	48 8d 3d 2a 38 01 00 	lea    0x1382a(%rip),%rdi        # 182a7 <_IO_stdin_used+0x2a7>
    4a7d:	b0 00                	mov    $0x0,%al
    4a7f:	e8 4c e6 ff ff       	call   30d0 <printf@plt>
    4a84:	bf ff ff ff ff       	mov    $0xffffffff,%edi
    4a89:	31 f6                	xor    %esi,%esi
    4a8b:	e8 80 40 00 00       	call   8b10 <slip_Return>
    4a90:	48 89 45 f8          	mov    %rax,-0x8(%rbp)
    4a94:	e9 8a 03 00 00       	jmp    4e23 <_if+0x453>
    4a99:	48 8b 45 d8          	mov    -0x28(%rbp),%rax
    4a9d:	48 89 45 d0          	mov    %rax,-0x30(%rbp)
    4aa1:	48 8b 45 d0          	mov    -0x30(%rbp),%rax
    4aa5:	48 89 45 c8          	mov    %rax,-0x38(%rbp)
    4aa9:	48 8d 7d b8          	lea    -0x48(%rbp),%rdi
    4aad:	31 f6                	xor    %esi,%esi
    4aaf:	ba 10 00 00 00       	mov    $0x10,%edx
    4ab4:	e8 47 e6 ff ff       	call   3100 <memset@plt>
    4ab9:	48 8d 7d c8          	lea    -0x38(%rbp),%rdi
    4abd:	be 00 01 00 00       	mov    $0x100,%esi
    4ac2:	48 8d 55 b8          	lea    -0x48(%rbp),%rdx
    4ac6:	e8 85 73 00 00       	call   be50 <slipL_pullListArgument>
    4acb:	83 f8 00             	cmp    $0x0,%eax
    4ace:	0f 84 15 00 00 00    	je     4ae9 <_if+0x119>
    4ad4:	bf ff ff ff ff       	mov    $0xffffffff,%edi
    4ad9:	31 f6                	xor    %esi,%esi
    4adb:	e8 30 40 00 00       	call   8b10 <slip_Return>
    4ae0:	48 89 45 f8          	mov    %rax,-0x8(%rbp)
    4ae4:	e9 3a 03 00 00       	jmp    4e23 <_if+0x453>
    4ae9:	48 8d 7d a8          	lea    -0x58(%rbp),%rdi
    4aed:	31 f6                	xor    %esi,%esi
    4aef:	ba 10 00 00 00       	mov    $0x10,%edx
    4af4:	e8 07 e6 ff ff       	call   3100 <memset@plt>
    4af9:	48 8d 7d c8          	lea    -0x38(%rbp),%rdi
    4afd:	be 00 01 00 00       	mov    $0x100,%esi
    4b02:	48 8d 55 a8          	lea    -0x58(%rbp),%rdx
    4b06:	e8 45 73 00 00       	call   be50 <slipL_pullListArgument>
    4b0b:	83 f8 00             	cmp    $0x0,%eax
    4b0e:	0f 84 15 00 00 00    	je     4b29 <_if+0x159>
    4b14:	bf ff ff ff ff       	mov    $0xffffffff,%edi
    4b19:	31 f6                	xor    %esi,%esi
    4b1b:	e8 f0 3f 00 00       	call   8b10 <slip_Return>
    4b20:	48 89 45 f8          	mov    %rax,-0x8(%rbp)
    4b24:	e9 fa 02 00 00       	jmp    4e23 <_if+0x453>
    4b29:	48 8d 7d 98          	lea    -0x68(%rbp),%rdi
    4b2d:	31 f6                	xor    %esi,%esi
    4b2f:	ba 10 00 00 00       	mov    $0x10,%edx
    4b34:	e8 c7 e5 ff ff       	call   3100 <memset@plt>
    4b39:	48 83 7d c8 00       	cmpq   $0x0,-0x38(%rbp)
    4b3e:	0f 84 7d 00 00 00    	je     4bc1 <_if+0x1f1>
    4b44:	48 8b 45 c8          	mov    -0x38(%rbp),%rax
    4b48:	48 8b 78 08          	mov    0x8(%rax),%rdi
    4b4c:	8b 70 10             	mov    0x10(%rax),%esi
    4b4f:	48 8d 15 64 38 01 00 	lea    0x13864(%rip),%rdx        # 183ba <_IO_stdin_used+0x3ba>
    4b56:	e8 15 a3 00 00       	call   ee70 <slipV_isThisID>
    4b5b:	a8 01                	test   $0x1,%al
    4b5d:	0f 85 05 00 00 00    	jne    4b68 <_if+0x198>
    4b63:	e9 59 00 00 00       	jmp    4bc1 <_if+0x1f1>
    4b68:	48 8b 7d c8          	mov    -0x38(%rbp),%rdi
    4b6c:	e8 df 6f 00 00       	call   bb50 <slipL_forward>
    4b71:	48 89 45 c8          	mov    %rax,-0x38(%rbp)
    4b75:	48 83 7d c8 00       	cmpq   $0x0,-0x38(%rbp)
    4b7a:	0f 85 2d 00 00 00    	jne    4bad <_if+0x1dd>
    4b80:	48 8b 05 69 b4 01 00 	mov    0x1b469(%rip),%rax        # 1fff0 <stderr@GLIBC_2.2.5>
    4b87:	48 8b 38             	mov    (%rax),%rdi
    4b8a:	48 8d 35 2e 38 01 00 	lea    0x1382e(%rip),%rsi        # 183bf <_IO_stdin_used+0x3bf>
    4b91:	b0 00                	mov    $0x0,%al
    4b93:	e8 98 e5 ff ff       	call   3130 <fprintf@plt>
    4b98:	bf ff ff ff ff       	mov    $0xffffffff,%edi
    4b9d:	31 f6                	xor    %esi,%esi
    4b9f:	e8 6c 3f 00 00       	call   8b10 <slip_Return>
    4ba4:	48 89 45 f8          	mov    %rax,-0x8(%rbp)
    4ba8:	e9 76 02 00 00       	jmp    4e23 <_if+0x453>
    4bad:	48 8b 45 c8          	mov    -0x38(%rbp),%rax
    4bb1:	48 8b 48 08          	mov    0x8(%rax),%rcx
    4bb5:	48 89 4d 98          	mov    %rcx,-0x68(%rbp)
    4bb9:	48 8b 40 10          	mov    0x10(%rax),%rax
    4bbd:	48 89 45 a0          	mov    %rax,-0x60(%rbp)
    4bc1:	e9 00 00 00 00       	jmp    4bc6 <_if+0x1f6>
    4bc6:	48 8d 05 47 b8 01 00 	lea    0x1b847(%rip),%rax        # 20414 <slip_debug_compile>
    4bcd:	f6 00 01             	testb  $0x1,(%rax)
    4bd0:	0f 84 0e 00 00 00    	je     4be4 <_if+0x214>
    4bd6:	48 8d 3d f6 37 01 00 	lea    0x137f6(%rip),%rdi        # 183d3 <_IO_stdin_used+0x3d3>
    4bdd:	b0 00                	mov    $0x0,%al
    4bdf:	e8 ec e4 ff ff       	call   30d0 <printf@plt>
    4be4:	e9 00 00 00 00       	jmp    4be9 <_if+0x219>
    4be9:	48 8d 05 24 b8 01 00 	lea    0x1b824(%rip),%rax        # 20414 <slip_debug_compile>
    4bf0:	f6 00 01             	testb  $0x1,(%rax)
    4bf3:	0f 84 2c 00 00 00    	je     4c25 <_if+0x255>
    4bf9:	48 8b 7d f0          	mov    -0x10(%rbp),%rdi
    4bfd:	48 8b 75 b8          	mov    -0x48(%rbp),%rsi
    4c01:	8b 55 c0             	mov    -0x40(%rbp),%edx
    4c04:	48 8b 4d a8          	mov    -0x58(%rbp),%rcx
    4c08:	44 8b 45 b0          	mov    -0x50(%rbp),%r8d
    4c0c:	48 8d 45 98          	lea    -0x68(%rbp),%rax
    4c10:	4c 8b 08             	mov    (%rax),%r9
    4c13:	4c 89 0c 24          	mov    %r9,(%rsp)
    4c17:	48 8b 40 08          	mov    0x8(%rax),%rax
    4c1b:	48 89 44 24 08       	mov    %rax,0x8(%rsp)
    4c20:	e8 7b 41 00 00       	call   8da0 <check_if>
    4c25:	48 8b 7d f0          	mov    -0x10(%rbp),%rdi
    4c29:	be ff ff ff ff       	mov    $0xffffffff,%esi
    4c2e:	e8 bd 68 00 00       	call   b4f0 <slipC_getFunc>
    4c33:	48 89 45 90          	mov    %rax,-0x70(%rbp)
    4c37:	c7 45 8c 00 00 00 00 	movl   $0x0,-0x74(%rbp)
    4c3e:	48 8b 7d f0          	mov    -0x10(%rbp),%rdi
    4c42:	48 8b 75 90          	mov    -0x70(%rbp),%rsi
    4c46:	48 8b 55 b8          	mov    -0x48(%rbp),%rdx
    4c4a:	8b 4d c0             	mov    -0x40(%rbp),%ecx
    4c4d:	4c 8d 45 8c          	lea    -0x74(%rbp),%r8
    4c51:	e8 2a 39 00 00       	call   8580 <load>
    4c56:	89 45 88             	mov    %eax,-0x78(%rbp)
    4c59:	48 8b 45 90          	mov    -0x70(%rbp),%rax
    4c5d:	48 89 85 60 ff ff ff 	mov    %rax,-0xa0(%rbp)
    4c64:	8b 45 88             	mov    -0x78(%rbp),%eax
    4c67:	31 f6                	xor    %esi,%esi
    4c69:	0f b7 f8             	movzwl %ax,%edi
    4c6c:	e8 0f 42 00 00       	call   8e80 <slipI_cjp>
    4c71:	48 8b bd 60 ff ff ff 	mov    -0xa0(%rbp),%rdi
    4c78:	89 45 80             	mov    %eax,-0x80(%rbp)
    4c7b:	8b 75 80             	mov    -0x80(%rbp),%esi
    4c7e:	e8 9d 75 00 00       	call   c220 <slipP_addInstruction>
    4c83:	89 45 84             	mov    %eax,-0x7c(%rbp)
    4c86:	48 8b 7d 90          	mov    -0x70(%rbp),%rdi
    4c8a:	8b 75 8c             	mov    -0x74(%rbp),%esi
    4c8d:	e8 4e 79 00 00       	call   c5e0 <slipP_popLocalVar>
    4c92:	83 7d a0 00          	cmpl   $0x0,-0x60(%rbp)
    4c96:	0f 84 73 00 00 00    	je     4d0f <_if+0x33f>
    4c9c:	48 8b 45 f0          	mov    -0x10(%rbp),%rax
    4ca0:	48 89 85 58 ff ff ff 	mov    %rax,-0xa8(%rbp)
    4ca7:	48 8b 45 f0          	mov    -0x10(%rbp),%rax
    4cab:	48 8b 78 48          	mov    0x48(%rax),%rdi
    4caf:	e8 4c 82 00 00       	call   cf00 <slipD_table>
    4cb4:	48 8b 40 08          	mov    0x8(%rax),%rax
    4cb8:	48 8b 4d f0          	mov    -0x10(%rbp),%rcx
    4cbc:	48 8b 79 48          	mov    0x48(%rcx),%rdi
    4cc0:	ff d0                	call   *%rax
    4cc2:	48 8b bd 58 ff ff ff 	mov    -0xa8(%rbp),%rdi
    4cc9:	48 89 c6             	mov    %rax,%rsi
    4ccc:	e8 7f 67 00 00       	call   b450 <slipC_pushEnvStack>
    4cd1:	48 8b 7d f0          	mov    -0x10(%rbp),%rdi
    4cd5:	48 8b 75 98          	mov    -0x68(%rbp),%rsi
    4cd9:	31 d2                	xor    %edx,%edx
    4cdb:	e8 20 bd 00 00       	call   10a00 <slipV_callList>
    4ce0:	89 85 7c ff ff ff    	mov    %eax,-0x84(%rbp)
    4ce6:	83 bd 7c ff ff ff 00 	cmpl   $0x0,-0x84(%rbp)
    4ced:	0f 8e 13 00 00 00    	jle    4d06 <_if+0x336>
    4cf3:	48 8b 7d f0          	mov    -0x10(%rbp),%rdi
    4cf7:	48 83 c7 08          	add    $0x8,%rdi
    4cfb:	8b b5 7c ff ff ff    	mov    -0x84(%rbp),%esi
    4d01:	e8 6a 8d 00 00       	call   da70 <slipS_popValueNum>
    4d06:	48 8b 7d f0          	mov    -0x10(%rbp),%rdi
    4d0a:	e8 81 67 00 00       	call   b490 <slipC_popEnvStack>
    4d0f:	48 8b 45 90          	mov    -0x70(%rbp),%rax
    4d13:	48 89 85 48 ff ff ff 	mov    %rax,-0xb8(%rbp)
    4d1a:	31 ff                	xor    %edi,%edi
    4d1c:	e8 af 41 00 00       	call   8ed0 <slipI_jmp>
    4d21:	48 8b bd 48 ff ff ff 	mov    -0xb8(%rbp),%rdi
    4d28:	89 85 70 ff ff ff    	mov    %eax,-0x90(%rbp)
    4d2e:	8b b5 70 ff ff ff    	mov    -0x90(%rbp),%esi
    4d34:	e8 e7 74 00 00       	call   c220 <slipP_addInstruction>
    4d39:	89 85 78 ff ff ff    	mov    %eax,-0x88(%rbp)
    4d3f:	8b 85 78 ff ff ff    	mov    -0x88(%rbp),%eax
    4d45:	83 c0 01             	add    $0x1,%eax
    4d48:	2b 45 84             	sub    -0x7c(%rbp),%eax
    4d4b:	66 89 c2             	mov    %ax,%dx
    4d4e:	48 8b 45 90          	mov    -0x70(%rbp),%rax
    4d52:	48 8b 40 38          	mov    0x38(%rax),%rax
    4d56:	48 63 4d 84          	movslq -0x7c(%rbp),%rcx
    4d5a:	66 89 54 88 02       	mov    %dx,0x2(%rax,%rcx,4)
    4d5f:	48 8b 45 f0          	mov    -0x10(%rbp),%rax
    4d63:	48 89 85 50 ff ff ff 	mov    %rax,-0xb0(%rbp)
    4d6a:	48 8b 45 f0          	mov    -0x10(%rbp),%rax
    4d6e:	48 8b 78 48          	mov    0x48(%rax),%rdi
    4d72:	e8 89 81 00 00       	call   cf00 <slipD_table>
    4d77:	48 8b 40 08          	mov    0x8(%rax),%rax
    4d7b:	48 8b 4d f0          	mov    -0x10(%rbp),%rcx
    4d7f:	48 8b 79 48          	mov    0x48(%rcx),%rdi
    4d83:	ff d0                	call   *%rax
    4d85:	48 8b bd 50 ff ff ff 	mov    -0xb0(%rbp),%rdi
    4d8c:	48 89 c6             	mov    %rax,%rsi
    4d8f:	e8 bc 66 00 00       	call   b450 <slipC_pushEnvStack>
    4d94:	48 8b 7d f0          	mov    -0x10(%rbp),%rdi
    4d98:	48 8b 75 a8          	mov    -0x58(%rbp),%rsi
    4d9c:	31 d2                	xor    %edx,%edx
    4d9e:	e8 5d bc 00 00       	call   10a00 <slipV_callList>
    4da3:	89 85 6c ff ff ff    	mov    %eax,-0x94(%rbp)
    4da9:	83 bd 6c ff ff ff 00 	cmpl   $0x0,-0x94(%rbp)
    4db0:	0f 8e 13 00 00 00    	jle    4dc9 <_if+0x3f9>
    4db6:	48 8b 7d f0          	mov    -0x10(%rbp),%rdi
    4dba:	48 83 c7 08          	add    $0x8,%rdi
    4dbe:	8b b5 6c ff ff ff    	mov    -0x94(%rbp),%esi
    4dc4:	e8 a7 8c 00 00       	call   da70 <slipS_popValueNum>
    4dc9:	48 8b 7d f0          	mov    -0x10(%rbp),%rdi
    4dcd:	e8 be 66 00 00       	call   b490 <slipC_popEnvStack>
    4dd2:	48 8b 45 90          	mov    -0x70(%rbp),%rax
    4dd6:	8b 70 18             	mov    0x18(%rax),%esi
    4dd9:	2b b5 78 ff ff ff    	sub    -0x88(%rbp),%esi
    4ddf:	48 8b 45 90          	mov    -0x70(%rbp),%rax
    4de3:	48 8b 40 38          	mov    0x38(%rax),%rax
    4de7:	48 63 8d 78 ff ff ff 	movslq -0x88(%rbp),%rcx
    4dee:	8b 14 88             	mov    (%rax,%rcx,4),%edx
    4df1:	81 e6 ff ff ff 03    	and    $0x3ffffff,%esi
    4df7:	c1 e6 06             	shl    $0x6,%esi
    4dfa:	83 e2 3f             	and    $0x3f,%edx
    4dfd:	09 f2                	or     %esi,%edx
    4dff:	89 14 88             	mov    %edx,(%rax,%rcx,4)
    4e02:	8b 4d a0             	mov    -0x60(%rbp),%ecx
    4e05:	be 04 00 00 00       	mov    $0x4,%esi
    4e0a:	b8 02 00 00 00       	mov    $0x2,%eax
    4e0f:	83 f9 00             	cmp    $0x0,%ecx
    4e12:	0f 44 f0             	cmove  %eax,%esi
    4e15:	bf 01 00 00 00       	mov    $0x1,%edi
    4e1a:	e8 f1 3c 00 00       	call   8b10 <slip_Return>
    4e1f:	48 89 45 f8          	mov    %rax,-0x8(%rbp)
    4e23:	48 8b 45 f8          	mov    -0x8(%rbp),%rax
    4e27:	48 81 c4 d0 00 00 00 	add    $0xd0,%rsp
    4e2e:	5d                   	pop    %rbp
    4e2f:	c3                   	ret

0000000000004e30 <_while>:
    4e30:	55                   	push   %rbp
    4e31:	48 89 e5             	mov    %rsp,%rbp
    4e34:	48 81 ec 40 01 00 00 	sub    $0x140,%rsp
    4e3b:	48 89 7d f0          	mov    %rdi,-0x10(%rbp)
    4e3f:	89 75 ec             	mov    %esi,-0x14(%rbp)
    4e42:	83 7d ec 01          	cmpl   $0x1,-0x14(%rbp)
    4e46:	0f 84 23 00 00 00    	je     4e6f <_while+0x3f>
    4e4c:	48 8d 3d 11 34 01 00 	lea    0x13411(%rip),%rdi        # 18264 <_IO_stdin_used+0x264>
    4e53:	b0 00                	mov    $0x0,%al
    4e55:	e8 76 e2 ff ff       	call   30d0 <printf@plt>
    4e5a:	bf ff ff ff ff       	mov    $0xffffffff,%edi
    4e5f:	31 f6                	xor    %esi,%esi
    4e61:	e8 aa 3c 00 00       	call   8b10 <slip_Return>
    4e66:	48 89 45 f8          	mov    %rax,-0x8(%rbp)
    4e6a:	e9 18 05 00 00       	jmp    5387 <_while+0x557>
    4e6f:	83 7d ec 01          	cmpl   $0x1,-0x14(%rbp)
    4e73:	0f 8c 05 00 00 00    	jl     4e7e <_while+0x4e>
    4e79:	e9 1f 00 00 00       	jmp    4e9d <_while+0x6d>
    4e7e:	48 8d 3d 61 33 01 00 	lea    0x13361(%rip),%rdi        # 181e6 <_IO_stdin_used+0x1e6>
    4e85:	48 8d 35 63 33 01 00 	lea    0x13363(%rip),%rsi        # 181ef <_IO_stdin_used+0x1ef>
    4e8c:	ba 32 02 00 00       	mov    $0x232,%edx
    4e91:	48 8d 0d 6c 35 01 00 	lea    0x1356c(%rip),%rcx        # 18404 <_IO_stdin_used+0x404>
    4e98:	e8 53 e2 ff ff       	call   30f0 <__assert_fail@plt>
    4e9d:	c7 45 e8 01 00 00 00 	movl   $0x1,-0x18(%rbp)
    4ea4:	48 8b 7d f0          	mov    -0x10(%rbp),%rdi
    4ea8:	31 f6                	xor    %esi,%esi
    4eaa:	2b 75 ec             	sub    -0x14(%rbp),%esi
    4ead:	e8 0e a0 00 00       	call   eec0 <slipV_getValue>
    4eb2:	48 89 45 d8          	mov    %rax,-0x28(%rbp)
    4eb6:	89 55 e0             	mov    %edx,-0x20(%rbp)
    4eb9:	48 8b 7d f0          	mov    -0x10(%rbp),%rdi
    4ebd:	48 83 c7 08          	add    $0x8,%rdi
    4ec1:	8b 75 ec             	mov    -0x14(%rbp),%esi
    4ec4:	e8 a7 8b 00 00       	call   da70 <slipS_popValueNum>
    4ec9:	81 7d e0 00 01 00 00 	cmpl   $0x100,-0x20(%rbp)
    4ed0:	0f 84 23 00 00 00    	je     4ef9 <_while+0xc9>
    4ed6:	48 8d 3d ca 33 01 00 	lea    0x133ca(%rip),%rdi        # 182a7 <_IO_stdin_used+0x2a7>
    4edd:	b0 00                	mov    $0x0,%al
    4edf:	e8 ec e1 ff ff       	call   30d0 <printf@plt>
    4ee4:	bf ff ff ff ff       	mov    $0xffffffff,%edi
    4ee9:	31 f6                	xor    %esi,%esi
    4eeb:	e8 20 3c 00 00       	call   8b10 <slip_Return>
    4ef0:	48 89 45 f8          	mov    %rax,-0x8(%rbp)
    4ef4:	e9 8e 04 00 00       	jmp    5387 <_while+0x557>
    4ef9:	48 8b 45 d8          	mov    -0x28(%rbp),%rax
    4efd:	48 89 45 d0          	mov    %rax,-0x30(%rbp)
    4f01:	48 8b 45 d0          	mov    -0x30(%rbp),%rax
    4f05:	48 89 45 c8          	mov    %rax,-0x38(%rbp)
    4f09:	48 8d 7d b8          	lea    -0x48(%rbp),%rdi
    4f0d:	31 f6                	xor    %esi,%esi
    4f0f:	ba 10 00 00 00       	mov    $0x10,%edx
    4f14:	e8 e7 e1 ff ff       	call   3100 <memset@plt>
    4f19:	48 8d 7d c8          	lea    -0x38(%rbp),%rdi
    4f1d:	be 00 01 00 00       	mov    $0x100,%esi
    4f22:	48 8d 55 b8          	lea    -0x48(%rbp),%rdx
    4f26:	e8 25 6f 00 00       	call   be50 <slipL_pullListArgument>
    4f2b:	83 f8 00             	cmp    $0x0,%eax
    4f2e:	0f 84 15 00 00 00    	je     4f49 <_while+0x119>
    4f34:	bf ff ff ff ff       	mov    $0xffffffff,%edi
    4f39:	31 f6                	xor    %esi,%esi
    4f3b:	e8 d0 3b 00 00       	call   8b10 <slip_Return>
    4f40:	48 89 45 f8          	mov    %rax,-0x8(%rbp)
    4f44:	e9 3e 04 00 00       	jmp    5387 <_while+0x557>
    4f49:	48 8d 7d a8          	lea    -0x58(%rbp),%rdi
    4f4d:	31 f6                	xor    %esi,%esi
    4f4f:	ba 10 00 00 00       	mov    $0x10,%edx
    4f54:	e8 a7 e1 ff ff       	call   3100 <memset@plt>
    4f59:	48 8d 7d c8          	lea    -0x38(%rbp),%rdi
    4f5d:	be 00 01 00 00       	mov    $0x100,%esi
    4f62:	48 8d 55 a8          	lea    -0x58(%rbp),%rdx
    4f66:	e8 e5 6e 00 00       	call   be50 <slipL_pullListArgument>
    4f6b:	83 f8 00             	cmp    $0x0,%eax
    4f6e:	0f 84 15 00 00 00    	je     4f89 <_while+0x159>
    4f74:	bf ff ff ff ff       	mov    $0xffffffff,%edi
    4f79:	31 f6                	xor    %esi,%esi
    4f7b:	e8 90 3b 00 00       	call   8b10 <slip_Return>
    4f80:	48 89 45 f8          	mov    %rax,-0x8(%rbp)
    4f84:	e9 fe 03 00 00       	jmp    5387 <_while+0x557>
    4f89:	e9 00 00 00 00       	jmp    4f8e <_while+0x15e>
    4f8e:	48 8d 05 7f b4 01 00 	lea    0x1b47f(%rip),%rax        # 20414 <slip_debug_compile>
    4f95:	f6 00 01             	testb  $0x1,(%rax)
    4f98:	0f 84 0e 00 00 00    	je     4fac <_while+0x17c>
    4f9e:	48 8d 3d 7d 34 01 00 	lea    0x1347d(%rip),%rdi        # 18422 <_IO_stdin_used+0x422>
    4fa5:	b0 00                	mov    $0x0,%al
    4fa7:	e8 24 e1 ff ff       	call   30d0 <printf@plt>
    4fac:	e9 00 00 00 00       	jmp    4fb1 <_while+0x181>
    4fb1:	48 8b 7d f0          	mov    -0x10(%rbp),%rdi
    4fb5:	be ff ff ff ff       	mov    $0xffffffff,%esi
    4fba:	e8 31 65 00 00       	call   b4f0 <slipC_getFunc>
    4fbf:	48 89 45 a0          	mov    %rax,-0x60(%rbp)
    4fc3:	48 8b 45 a0          	mov    -0x60(%rbp),%rax
    4fc7:	8b 40 18             	mov    0x18(%rax),%eax
    4fca:	89 45 9c             	mov    %eax,-0x64(%rbp)
    4fcd:	48 8b 45 f0          	mov    -0x10(%rbp),%rax
    4fd1:	48 89 85 f0 fe ff ff 	mov    %rax,-0x110(%rbp)
    4fd8:	48 8b 45 f0          	mov    -0x10(%rbp),%rax
    4fdc:	48 8b 78 48          	mov    0x48(%rax),%rdi
    4fe0:	e8 1b 7f 00 00       	call   cf00 <slipD_table>
    4fe5:	48 8b 40 08          	mov    0x8(%rax),%rax
    4fe9:	48 8b 4d f0          	mov    -0x10(%rbp),%rcx
    4fed:	48 8b 79 48          	mov    0x48(%rcx),%rdi
    4ff1:	ff d0                	call   *%rax
    4ff3:	48 8b bd f0 fe ff ff 	mov    -0x110(%rbp),%rdi
    4ffa:	48 89 c6             	mov    %rax,%rsi
    4ffd:	e8 1e 65 00 00       	call   b520 <slipC_pushLoopStack>
    5002:	c7 45 98 00 00 00 00 	movl   $0x0,-0x68(%rbp)
    5009:	48 8b 7d f0          	mov    -0x10(%rbp),%rdi
    500d:	48 8b 75 a0          	mov    -0x60(%rbp),%rsi
    5011:	48 8b 55 b8          	mov    -0x48(%rbp),%rdx
    5015:	8b 4d c0             	mov    -0x40(%rbp),%ecx
    5018:	4c 8d 45 98          	lea    -0x68(%rbp),%r8
    501c:	e8 5f 35 00 00       	call   8580 <load>
    5021:	89 45 94             	mov    %eax,-0x6c(%rbp)
    5024:	48 8b 45 a0          	mov    -0x60(%rbp),%rax
    5028:	48 89 85 f8 fe ff ff 	mov    %rax,-0x108(%rbp)
    502f:	8b 45 94             	mov    -0x6c(%rbp),%eax
    5032:	66 89 c1             	mov    %ax,%cx
    5035:	8b 45 94             	mov    -0x6c(%rbp),%eax
    5038:	0f b7 f9             	movzwl %cx,%edi
    503b:	0f b7 f0             	movzwl %ax,%esi
    503e:	e8 bd 3e 00 00       	call   8f00 <slipI_not>
    5043:	48 8b bd f8 fe ff ff 	mov    -0x108(%rbp),%rdi
    504a:	89 45 90             	mov    %eax,-0x70(%rbp)
    504d:	8b 75 90             	mov    -0x70(%rbp),%esi
    5050:	e8 cb 71 00 00       	call   c220 <slipP_addInstruction>
    5055:	48 8b 45 a0          	mov    -0x60(%rbp),%rax
    5059:	48 89 85 00 ff ff ff 	mov    %rax,-0x100(%rbp)
    5060:	8b 45 94             	mov    -0x6c(%rbp),%eax
    5063:	31 f6                	xor    %esi,%esi
    5065:	0f b7 f8             	movzwl %ax,%edi
    5068:	e8 13 3e 00 00       	call   8e80 <slipI_cjp>
    506d:	48 8b bd 00 ff ff ff 	mov    -0x100(%rbp),%rdi
    5074:	89 45 88             	mov    %eax,-0x78(%rbp)
    5077:	8b 75 88             	mov    -0x78(%rbp),%esi
    507a:	e8 a1 71 00 00       	call   c220 <slipP_addInstruction>
    507f:	89 45 8c             	mov    %eax,-0x74(%rbp)
    5082:	48 8b 7d a0          	mov    -0x60(%rbp),%rdi
    5086:	8b 75 98             	mov    -0x68(%rbp),%esi
    5089:	e8 52 75 00 00       	call   c5e0 <slipP_popLocalVar>
    508e:	48 8b 45 f0          	mov    -0x10(%rbp),%rax
    5092:	48 89 85 08 ff ff ff 	mov    %rax,-0xf8(%rbp)
    5099:	48 8b 45 f0          	mov    -0x10(%rbp),%rax
    509d:	48 8b 78 48          	mov    0x48(%rax),%rdi
    50a1:	e8 5a 7e 00 00       	call   cf00 <slipD_table>
    50a6:	48 8b 40 08          	mov    0x8(%rax),%rax
    50aa:	48 8b 4d f0          	mov    -0x10(%rbp),%rcx
    50ae:	48 8b 79 48          	mov    0x48(%rcx),%rdi
    50b2:	ff d0                	call   *%rax
    50b4:	48 8b bd 08 ff ff ff 	mov    -0xf8(%rbp),%rdi
    50bb:	48 89 c6             	mov    %rax,%rsi
    50be:	e8 8d 63 00 00       	call   b450 <slipC_pushEnvStack>
    50c3:	48 8b 7d f0          	mov    -0x10(%rbp),%rdi
    50c7:	48 8b 75 a8          	mov    -0x58(%rbp),%rsi
    50cb:	31 d2                	xor    %edx,%edx
    50cd:	e8 2e b9 00 00       	call   10a00 <slipV_callList>
    50d2:	89 45 84             	mov    %eax,-0x7c(%rbp)
    50d5:	83 7d 84 00          	cmpl   $0x0,-0x7c(%rbp)
    50d9:	0f 8e 10 00 00 00    	jle    50ef <_while+0x2bf>
    50df:	48 8b 7d f0          	mov    -0x10(%rbp),%rdi
    50e3:	48 83 c7 08          	add    $0x8,%rdi
    50e7:	8b 75 84             	mov    -0x7c(%rbp),%esi
    50ea:	e8 81 89 00 00       	call   da70 <slipS_popValueNum>
    50ef:	48 8b 7d f0          	mov    -0x10(%rbp),%rdi
    50f3:	e8 98 63 00 00       	call   b490 <slipC_popEnvStack>
    50f8:	48 8b 45 a0          	mov    -0x60(%rbp),%rax
    50fc:	48 89 85 d8 fe ff ff 	mov    %rax,-0x128(%rbp)
    5103:	8b 7d 9c             	mov    -0x64(%rbp),%edi
    5106:	48 8b 45 a0          	mov    -0x60(%rbp),%rax
    510a:	2b 78 18             	sub    0x18(%rax),%edi
    510d:	e8 be 3d 00 00       	call   8ed0 <slipI_jmp>
    5112:	48 8b bd d8 fe ff ff 	mov    -0x128(%rbp),%rdi
    5119:	89 85 78 ff ff ff    	mov    %eax,-0x88(%rbp)
    511f:	8b b5 78 ff ff ff    	mov    -0x88(%rbp),%esi
    5125:	e8 f6 70 00 00       	call   c220 <slipP_addInstruction>
    512a:	89 45 80             	mov    %eax,-0x80(%rbp)
    512d:	8b 45 80             	mov    -0x80(%rbp),%eax
    5130:	83 c0 01             	add    $0x1,%eax
    5133:	2b 45 8c             	sub    -0x74(%rbp),%eax
    5136:	66 89 c2             	mov    %ax,%dx
    5139:	48 8b 45 a0          	mov    -0x60(%rbp),%rax
    513d:	48 8b 40 38          	mov    0x38(%rax),%rax
    5141:	48 63 4d 8c          	movslq -0x74(%rbp),%rcx
    5145:	66 89 54 88 02       	mov    %dx,0x2(%rax,%rcx,4)
    514a:	48 8b 7d f0          	mov    -0x10(%rbp),%rdi
    514e:	e8 0d 64 00 00       	call   b560 <slipC_popLoopStack>
    5153:	48 89 85 70 ff ff ff 	mov    %rax,-0x90(%rbp)
    515a:	48 8b bd 70 ff ff ff 	mov    -0x90(%rbp),%rdi
    5161:	e8 3a 58 00 00       	call   a9a0 <slipM_getMeta>
    5166:	48 8b 40 28          	mov    0x28(%rax),%rax
    516a:	48 89 85 e8 fe ff ff 	mov    %rax,-0x118(%rbp)
    5171:	48 8b 85 70 ff ff ff 	mov    -0x90(%rbp),%rax
    5178:	48 89 85 e0 fe ff ff 	mov    %rax,-0x120(%rbp)
    517f:	48 8b 45 f0          	mov    -0x10(%rbp),%rax
    5183:	48 8b 78 48          	mov    0x48(%rax),%rdi
    5187:	e8 94 7c 00 00       	call   ce20 <slipD_str>
    518c:	48 8b 40 10          	mov    0x10(%rax),%rax
    5190:	48 8b 4d f0          	mov    -0x10(%rbp),%rcx
    5194:	48 8b 79 48          	mov    0x48(%rcx),%rdi
    5198:	48 8d 35 0c 30 01 00 	lea    0x1300c(%rip),%rsi        # 181ab <_IO_stdin_used+0x1ab>
    519f:	ff d0                	call   *%rax
    51a1:	48 8b bd e0 fe ff ff 	mov    -0x120(%rbp),%rdi
    51a8:	48 89 c1             	mov    %rax,%rcx
    51ab:	48 8b 85 e8 fe ff ff 	mov    -0x118(%rbp),%rax
    51b2:	48 89 8d 50 ff ff ff 	mov    %rcx,-0xb0(%rbp)
    51b9:	89 95 58 ff ff ff    	mov    %edx,-0xa8(%rbp)
    51bf:	48 8b b5 50 ff ff ff 	mov    -0xb0(%rbp),%rsi
    51c6:	8b 95 58 ff ff ff    	mov    -0xa8(%rbp),%edx
    51cc:	ff d0                	call   *%rax
    51ce:	48 89 85 60 ff ff ff 	mov    %rax,-0xa0(%rbp)
    51d5:	89 95 68 ff ff ff    	mov    %edx,-0x98(%rbp)
    51db:	83 bd 68 ff ff ff 00 	cmpl   $0x0,-0x98(%rbp)
    51e2:	0f 84 73 00 00 00    	je     525b <_while+0x42b>
    51e8:	48 8b 85 60 ff ff ff 	mov    -0xa0(%rbp),%rax
    51ef:	48 89 85 48 ff ff ff 	mov    %rax,-0xb8(%rbp)
    51f6:	48 8b 85 48 ff ff ff 	mov    -0xb8(%rbp),%rax
    51fd:	48 89 85 40 ff ff ff 	mov    %rax,-0xc0(%rbp)
    5204:	48 83 bd 40 ff ff ff 	cmpq   $0x0,-0xc0(%rbp)
    520b:	00 
    520c:	0f 84 44 00 00 00    	je     5256 <_while+0x426>
    5212:	8b 45 80             	mov    -0x80(%rbp),%eax
    5215:	83 c0 01             	add    $0x1,%eax
    5218:	48 98                	cltq
    521a:	48 8b 8d 40 ff ff ff 	mov    -0xc0(%rbp),%rcx
    5221:	48 2b 41 08          	sub    0x8(%rcx),%rax
    5225:	66 89 c2             	mov    %ax,%dx
    5228:	48 8b 45 a0          	mov    -0x60(%rbp),%rax
    522c:	48 8b 40 38          	mov    0x38(%rax),%rax
    5230:	48 8b 8d 40 ff ff ff 	mov    -0xc0(%rbp),%rcx
    5237:	48 8b 49 08          	mov    0x8(%rcx),%rcx
    523b:	66 89 54 88 02       	mov    %dx,0x2(%rax,%rcx,4)
    5240:	48 8b 85 40 ff ff ff 	mov    -0xc0(%rbp),%rax
    5247:	48 8b 00             	mov    (%rax),%rax
    524a:	48 89 85 40 ff ff ff 	mov    %rax,-0xc0(%rbp)
    5251:	e9 ae ff ff ff       	jmp    5204 <_while+0x3d4>
    5256:	e9 00 00 00 00       	jmp    525b <_while+0x42b>
    525b:	48 8b bd 70 ff ff ff 	mov    -0x90(%rbp),%rdi
    5262:	e8 39 57 00 00       	call   a9a0 <slipM_getMeta>
    5267:	48 8b 40 28          	mov    0x28(%rax),%rax
    526b:	48 89 85 d0 fe ff ff 	mov    %rax,-0x130(%rbp)
    5272:	48 8b 85 70 ff ff ff 	mov    -0x90(%rbp),%rax
    5279:	48 89 85 c8 fe ff ff 	mov    %rax,-0x138(%rbp)
    5280:	48 8b 45 f0          	mov    -0x10(%rbp),%rax
    5284:	48 8b 78 48          	mov    0x48(%rax),%rdi
    5288:	e8 93 7b 00 00       	call   ce20 <slipD_str>
    528d:	48 8b 40 10          	mov    0x10(%rax),%rax
    5291:	48 8b 4d f0          	mov    -0x10(%rbp),%rcx
    5295:	48 8b 79 48          	mov    0x48(%rcx),%rdi
    5299:	48 8d 35 11 2f 01 00 	lea    0x12f11(%rip),%rsi        # 181b1 <_IO_stdin_used+0x1b1>
    52a0:	ff d0                	call   *%rax
    52a2:	48 8b bd c8 fe ff ff 	mov    -0x138(%rbp),%rdi
    52a9:	48 89 c1             	mov    %rax,%rcx
    52ac:	48 8b 85 d0 fe ff ff 	mov    -0x130(%rbp),%rax
    52b3:	48 89 8d 20 ff ff ff 	mov    %rcx,-0xe0(%rbp)
    52ba:	89 95 28 ff ff ff    	mov    %edx,-0xd8(%rbp)
    52c0:	48 8b b5 20 ff ff ff 	mov    -0xe0(%rbp),%rsi
    52c7:	8b 95 28 ff ff ff    	mov    -0xd8(%rbp),%edx
    52cd:	ff d0                	call   *%rax
    52cf:	48 89 85 30 ff ff ff 	mov    %rax,-0xd0(%rbp)
    52d6:	89 95 38 ff ff ff    	mov    %edx,-0xc8(%rbp)
    52dc:	48 8b 85 30 ff ff ff 	mov    -0xd0(%rbp),%rax
    52e3:	48 89 85 60 ff ff ff 	mov    %rax,-0xa0(%rbp)
    52ea:	48 8b 85 38 ff ff ff 	mov    -0xc8(%rbp),%rax
    52f1:	48 89 85 68 ff ff ff 	mov    %rax,-0x98(%rbp)
    52f8:	83 bd 68 ff ff ff 00 	cmpl   $0x0,-0x98(%rbp)
    52ff:	0f 84 6f 00 00 00    	je     5374 <_while+0x544>
    5305:	48 8b 85 60 ff ff ff 	mov    -0xa0(%rbp),%rax
    530c:	48 89 85 18 ff ff ff 	mov    %rax,-0xe8(%rbp)
    5313:	48 8b 85 18 ff ff ff 	mov    -0xe8(%rbp),%rax
    531a:	48 89 85 10 ff ff ff 	mov    %rax,-0xf0(%rbp)
    5321:	48 83 bd 10 ff ff ff 	cmpq   $0x0,-0xf0(%rbp)
    5328:	00 
    5329:	0f 84 40 00 00 00    	je     536f <_while+0x53f>
    532f:	48 63 45 9c          	movslq -0x64(%rbp),%rax
    5333:	48 8b 8d 10 ff ff ff 	mov    -0xf0(%rbp),%rcx
    533a:	48 2b 41 08          	sub    0x8(%rcx),%rax
    533e:	66 89 c2             	mov    %ax,%dx
    5341:	48 8b 45 a0          	mov    -0x60(%rbp),%rax
    5345:	48 8b 40 38          	mov    0x38(%rax),%rax
    5349:	48 8b 8d 10 ff ff ff 	mov    -0xf0(%rbp),%rcx
    5350:	48 8b 49 08          	mov    0x8(%rcx),%rcx
    5354:	66 89 54 88 02       	mov    %dx,0x2(%rax,%rcx,4)
    5359:	48 8b 85 10 ff ff ff 	mov    -0xf0(%rbp),%rax
    5360:	48 8b 00             	mov    (%rax),%rax
    5363:	48 89 85 10 ff ff ff 	mov    %rax,-0xf0(%rbp)
    536a:	e9 b2 ff ff ff       	jmp    5321 <_while+0x4f1>
    536f:	e9 00 00 00 00       	jmp    5374 <_while+0x544>
    5374:	bf 01 00 00 00       	mov    $0x1,%edi
    5379:	be 02 00 00 00       	mov    $0x2,%esi
    537e:	e8 8d 37 00 00       	call   8b10 <slip_Return>
    5383:	48 89 45 f8          	mov    %rax,-0x8(%rbp)
    5387:	48 8b 45 f8          	mov    -0x8(%rbp),%rax
    538b:	48 81 c4 40 01 00 00 	add    $0x140,%rsp
    5392:	5d                   	pop    %rbp
    5393:	c3                   	ret
    5394:	66 2e 0f 1f 84 00 00 	cs nopw 0x0(%rax,%rax,1)
    539b:	00 00 00 
    539e:	66 90                	xchg   %ax,%ax

00000000000053a0 <_for>:
    53a0:	55                   	push   %rbp
    53a1:	48 89 e5             	mov    %rsp,%rbp
    53a4:	48 81 ec 70 01 00 00 	sub    $0x170,%rsp
    53ab:	48 89 7d f0          	mov    %rdi,-0x10(%rbp)
    53af:	89 75 ec             	mov    %esi,-0x14(%rbp)
    53b2:	83 7d ec 01          	cmpl   $0x1,-0x14(%rbp)
    53b6:	0f 84 23 00 00 00    	je     53df <_for+0x3f>
    53bc:	48 8d 3d a1 2e 01 00 	lea    0x12ea1(%rip),%rdi        # 18264 <_IO_stdin_used+0x264>
    53c3:	b0 00                	mov    $0x0,%al
    53c5:	e8 06 dd ff ff       	call   30d0 <printf@plt>
    53ca:	bf ff ff ff ff       	mov    $0xffffffff,%edi
    53cf:	31 f6                	xor    %esi,%esi
    53d1:	e8 3a 37 00 00       	call   8b10 <slip_Return>
    53d6:	48 89 45 f8          	mov    %rax,-0x8(%rbp)
    53da:	e9 b1 06 00 00       	jmp    5a90 <_for+0x6f0>
    53df:	83 7d ec 01          	cmpl   $0x1,-0x14(%rbp)
    53e3:	0f 8c 05 00 00 00    	jl     53ee <_for+0x4e>
    53e9:	e9 1f 00 00 00       	jmp    540d <_for+0x6d>
    53ee:	48 8d 3d f1 2d 01 00 	lea    0x12df1(%rip),%rdi        # 181e6 <_IO_stdin_used+0x1e6>
    53f5:	48 8d 35 f3 2d 01 00 	lea    0x12df3(%rip),%rsi        # 181ef <_IO_stdin_used+0x1ef>
    53fc:	ba 69 02 00 00       	mov    $0x269,%edx
    5401:	48 8d 0d 28 30 01 00 	lea    0x13028(%rip),%rcx        # 18430 <_IO_stdin_used+0x430>
    5408:	e8 e3 dc ff ff       	call   30f0 <__assert_fail@plt>
    540d:	c7 45 e8 01 00 00 00 	movl   $0x1,-0x18(%rbp)
    5414:	48 8b 7d f0          	mov    -0x10(%rbp),%rdi
    5418:	31 f6                	xor    %esi,%esi
    541a:	2b 75 ec             	sub    -0x14(%rbp),%esi
    541d:	e8 9e 9a 00 00       	call   eec0 <slipV_getValue>
    5422:	48 89 45 d8          	mov    %rax,-0x28(%rbp)
    5426:	89 55 e0             	mov    %edx,-0x20(%rbp)
    5429:	48 8b 7d f0          	mov    -0x10(%rbp),%rdi
    542d:	48 83 c7 08          	add    $0x8,%rdi
    5431:	8b 75 ec             	mov    -0x14(%rbp),%esi
    5434:	e8 37 86 00 00       	call   da70 <slipS_popValueNum>
    5439:	81 7d e0 00 01 00 00 	cmpl   $0x100,-0x20(%rbp)
    5440:	0f 84 23 00 00 00    	je     5469 <_for+0xc9>
    5446:	48 8d 3d 5a 2e 01 00 	lea    0x12e5a(%rip),%rdi        # 182a7 <_IO_stdin_used+0x2a7>
    544d:	b0 00                	mov    $0x0,%al
    544f:	e8 7c dc ff ff       	call   30d0 <printf@plt>
    5454:	bf ff ff ff ff       	mov    $0xffffffff,%edi
    5459:	31 f6                	xor    %esi,%esi
    545b:	e8 b0 36 00 00       	call   8b10 <slip_Return>
    5460:	48 89 45 f8          	mov    %rax,-0x8(%rbp)
    5464:	e9 27 06 00 00       	jmp    5a90 <_for+0x6f0>
    5469:	48 8b 45 d8          	mov    -0x28(%rbp),%rax
    546d:	48 89 45 d0          	mov    %rax,-0x30(%rbp)
    5471:	48 8b 45 d0          	mov    -0x30(%rbp),%rax
    5475:	48 89 45 c8          	mov    %rax,-0x38(%rbp)
    5479:	48 8d 7d b8          	lea    -0x48(%rbp),%rdi
    547d:	31 f6                	xor    %esi,%esi
    547f:	ba 10 00 00 00       	mov    $0x10,%edx
    5484:	e8 77 dc ff ff       	call   3100 <memset@plt>
    5489:	48 8d 7d c8          	lea    -0x38(%rbp),%rdi
    548d:	be 00 01 00 00       	mov    $0x100,%esi
    5492:	48 8d 55 b8          	lea    -0x48(%rbp),%rdx
    5496:	e8 b5 69 00 00       	call   be50 <slipL_pullListArgument>
    549b:	83 f8 00             	cmp    $0x0,%eax
    549e:	0f 84 15 00 00 00    	je     54b9 <_for+0x119>
    54a4:	bf ff ff ff ff       	mov    $0xffffffff,%edi
    54a9:	31 f6                	xor    %esi,%esi
    54ab:	e8 60 36 00 00       	call   8b10 <slip_Return>
    54b0:	48 89 45 f8          	mov    %rax,-0x8(%rbp)
    54b4:	e9 d7 05 00 00       	jmp    5a90 <_for+0x6f0>
    54b9:	48 8d 7d a8          	lea    -0x58(%rbp),%rdi
    54bd:	31 f6                	xor    %esi,%esi
    54bf:	ba 10 00 00 00       	mov    $0x10,%edx
    54c4:	e8 37 dc ff ff       	call   3100 <memset@plt>
    54c9:	48 8d 7d c8          	lea    -0x38(%rbp),%rdi
    54cd:	be 00 01 00 00       	mov    $0x100,%esi
    54d2:	48 8d 55 a8          	lea    -0x58(%rbp),%rdx
    54d6:	e8 75 69 00 00       	call   be50 <slipL_pullListArgument>
    54db:	83 f8 00             	cmp    $0x0,%eax
    54de:	0f 84 15 00 00 00    	je     54f9 <_for+0x159>
    54e4:	bf ff ff ff ff       	mov    $0xffffffff,%edi
    54e9:	31 f6                	xor    %esi,%esi
    54eb:	e8 20 36 00 00       	call   8b10 <slip_Return>
    54f0:	48 89 45 f8          	mov    %rax,-0x8(%rbp)
    54f4:	e9 97 05 00 00       	jmp    5a90 <_for+0x6f0>
    54f9:	e9 00 00 00 00       	jmp    54fe <_for+0x15e>
    54fe:	48 8d 05 0f af 01 00 	lea    0x1af0f(%rip),%rax        # 20414 <slip_debug_compile>
    5505:	f6 00 01             	testb  $0x1,(%rax)
    5508:	0f 84 0e 00 00 00    	je     551c <_for+0x17c>
    550e:	48 8d 3d 37 2f 01 00 	lea    0x12f37(%rip),%rdi        # 1844c <_IO_stdin_used+0x44c>
    5515:	b0 00                	mov    $0x0,%al
    5517:	e8 b4 db ff ff       	call   30d0 <printf@plt>
    551c:	e9 00 00 00 00       	jmp    5521 <_for+0x181>
    5521:	48 8b 7d b8          	mov    -0x48(%rbp),%rdi
    5525:	8b 75 c0             	mov    -0x40(%rbp),%esi
    5528:	e8 03 94 00 00       	call   e930 <slipV_printValue>
    552d:	48 8d 05 e0 ae 01 00 	lea    0x1aee0(%rip),%rax        # 20414 <slip_debug_compile>
    5534:	f6 00 01             	testb  $0x1,(%rax)
    5537:	0f 84 0e 00 00 00    	je     554b <_for+0x1ab>
    553d:	48 8d 3d 0e 2f 01 00 	lea    0x12f0e(%rip),%rdi        # 18452 <_IO_stdin_used+0x452>
    5544:	b0 00                	mov    $0x0,%al
    5546:	e8 85 db ff ff       	call   30d0 <printf@plt>
    554b:	e9 00 00 00 00       	jmp    5550 <_for+0x1b0>
    5550:	48 8b 45 b8          	mov    -0x48(%rbp),%rax
    5554:	48 89 45 a0          	mov    %rax,-0x60(%rbp)
    5558:	48 8d 7d a0          	lea    -0x60(%rbp),%rdi
    555c:	be 00 01 00 00       	mov    $0x100,%esi
    5561:	48 8d 55 90          	lea    -0x70(%rbp),%rdx
    5565:	e8 e6 68 00 00       	call   be50 <slipL_pullListArgument>
    556a:	83 f8 00             	cmp    $0x0,%eax
    556d:	0f 84 15 00 00 00    	je     5588 <_for+0x1e8>
    5573:	bf ff ff ff ff       	mov    $0xffffffff,%edi
    5578:	31 f6                	xor    %esi,%esi
    557a:	e8 91 35 00 00       	call   8b10 <slip_Return>
    557f:	48 89 45 f8          	mov    %rax,-0x8(%rbp)
    5583:	e9 08 05 00 00       	jmp    5a90 <_for+0x6f0>
    5588:	48 8b 7d 90          	mov    -0x70(%rbp),%rdi
    558c:	8b 75 98             	mov    -0x68(%rbp),%esi
    558f:	e8 9c 93 00 00       	call   e930 <slipV_printValue>
    5594:	48 8d 7d a0          	lea    -0x60(%rbp),%rdi
    5598:	be 00 01 00 00       	mov    $0x100,%esi
    559d:	48 8d 55 80          	lea    -0x80(%rbp),%rdx
    55a1:	e8 aa 68 00 00       	call   be50 <slipL_pullListArgument>
    55a6:	83 f8 00             	cmp    $0x0,%eax
    55a9:	0f 84 15 00 00 00    	je     55c4 <_for+0x224>
    55af:	bf ff ff ff ff       	mov    $0xffffffff,%edi
    55b4:	31 f6                	xor    %esi,%esi
    55b6:	e8 55 35 00 00       	call   8b10 <slip_Return>
    55bb:	48 89 45 f8          	mov    %rax,-0x8(%rbp)
    55bf:	e9 cc 04 00 00       	jmp    5a90 <_for+0x6f0>
    55c4:	48 8b 7d 80          	mov    -0x80(%rbp),%rdi
    55c8:	8b 75 88             	mov    -0x78(%rbp),%esi
    55cb:	e8 60 93 00 00       	call   e930 <slipV_printValue>
    55d0:	48 8d 7d a0          	lea    -0x60(%rbp),%rdi
    55d4:	be 00 01 00 00       	mov    $0x100,%esi
    55d9:	48 8d 95 70 ff ff ff 	lea    -0x90(%rbp),%rdx
    55e0:	e8 6b 68 00 00       	call   be50 <slipL_pullListArgument>
    55e5:	83 f8 00             	cmp    $0x0,%eax
    55e8:	0f 84 15 00 00 00    	je     5603 <_for+0x263>
    55ee:	bf ff ff ff ff       	mov    $0xffffffff,%edi
    55f3:	31 f6                	xor    %esi,%esi
    55f5:	e8 16 35 00 00       	call   8b10 <slip_Return>
    55fa:	48 89 45 f8          	mov    %rax,-0x8(%rbp)
    55fe:	e9 8d 04 00 00       	jmp    5a90 <_for+0x6f0>
    5603:	48 8b bd 70 ff ff ff 	mov    -0x90(%rbp),%rdi
    560a:	8b b5 78 ff ff ff    	mov    -0x88(%rbp),%esi
    5610:	e8 1b 93 00 00       	call   e930 <slipV_printValue>
    5615:	48 8b 7d f0          	mov    -0x10(%rbp),%rdi
    5619:	be ff ff ff ff       	mov    $0xffffffff,%esi
    561e:	e8 cd 5e 00 00       	call   b4f0 <slipC_getFunc>
    5623:	48 89 85 68 ff ff ff 	mov    %rax,-0x98(%rbp)
    562a:	c7 85 64 ff ff ff 00 	movl   $0x0,-0x9c(%rbp)
    5631:	00 00 00 
    5634:	48 8b 7d f0          	mov    -0x10(%rbp),%rdi
    5638:	48 8b b5 68 ff ff ff 	mov    -0x98(%rbp),%rsi
    563f:	48 8b 55 90          	mov    -0x70(%rbp),%rdx
    5643:	8b 4d 98             	mov    -0x68(%rbp),%ecx
    5646:	4c 8d 85 64 ff ff ff 	lea    -0x9c(%rbp),%r8
    564d:	e8 2e 2f 00 00       	call   8580 <load>
    5652:	48 8b 85 68 ff ff ff 	mov    -0x98(%rbp),%rax
    5659:	8b 40 18             	mov    0x18(%rax),%eax
    565c:	89 85 60 ff ff ff    	mov    %eax,-0xa0(%rbp)
    5662:	48 8b 45 f0          	mov    -0x10(%rbp),%rax
    5666:	48 89 85 b8 fe ff ff 	mov    %rax,-0x148(%rbp)
    566d:	48 8b 45 f0          	mov    -0x10(%rbp),%rax
    5671:	48 8b 78 48          	mov    0x48(%rax),%rdi
    5675:	e8 86 78 00 00       	call   cf00 <slipD_table>
    567a:	48 8b 40 08          	mov    0x8(%rax),%rax
    567e:	48 8b 4d f0          	mov    -0x10(%rbp),%rcx
    5682:	48 8b 79 48          	mov    0x48(%rcx),%rdi
    5686:	ff d0                	call   *%rax
    5688:	48 8b bd b8 fe ff ff 	mov    -0x148(%rbp),%rdi
    568f:	48 89 c6             	mov    %rax,%rsi
    5692:	e8 89 5e 00 00       	call   b520 <slipC_pushLoopStack>
    5697:	48 8b 7d f0          	mov    -0x10(%rbp),%rdi
    569b:	48 8b b5 68 ff ff ff 	mov    -0x98(%rbp),%rsi
    56a2:	48 8b 55 80          	mov    -0x80(%rbp),%rdx
    56a6:	8b 4d 88             	mov    -0x78(%rbp),%ecx
    56a9:	4c 8d 85 64 ff ff ff 	lea    -0x9c(%rbp),%r8
    56b0:	e8 cb 2e 00 00       	call   8580 <load>
    56b5:	89 85 5c ff ff ff    	mov    %eax,-0xa4(%rbp)
    56bb:	48 8b 85 68 ff ff ff 	mov    -0x98(%rbp),%rax
    56c2:	48 89 85 c0 fe ff ff 	mov    %rax,-0x140(%rbp)
    56c9:	8b 85 5c ff ff ff    	mov    -0xa4(%rbp),%eax
    56cf:	66 89 c1             	mov    %ax,%cx
    56d2:	8b 85 5c ff ff ff    	mov    -0xa4(%rbp),%eax
    56d8:	0f b7 f9             	movzwl %cx,%edi
    56db:	0f b7 f0             	movzwl %ax,%esi
    56de:	e8 1d 38 00 00       	call   8f00 <slipI_not>
    56e3:	48 8b bd c0 fe ff ff 	mov    -0x140(%rbp),%rdi
    56ea:	89 85 58 ff ff ff    	mov    %eax,-0xa8(%rbp)
    56f0:	8b b5 58 ff ff ff    	mov    -0xa8(%rbp),%esi
    56f6:	e8 25 6b 00 00       	call   c220 <slipP_addInstruction>
    56fb:	48 8b 85 68 ff ff ff 	mov    -0x98(%rbp),%rax
    5702:	48 89 85 c8 fe ff ff 	mov    %rax,-0x138(%rbp)
    5709:	8b 85 5c ff ff ff    	mov    -0xa4(%rbp),%eax
    570f:	31 f6                	xor    %esi,%esi
    5711:	0f b7 f8             	movzwl %ax,%edi
    5714:	e8 67 37 00 00       	call   8e80 <slipI_cjp>
    5719:	48 8b bd c8 fe ff ff 	mov    -0x138(%rbp),%rdi
    5720:	89 85 50 ff ff ff    	mov    %eax,-0xb0(%rbp)
    5726:	8b b5 50 ff ff ff    	mov    -0xb0(%rbp),%esi
    572c:	e8 ef 6a 00 00       	call   c220 <slipP_addInstruction>
    5731:	89 85 54 ff ff ff    	mov    %eax,-0xac(%rbp)
    5737:	48 8b 45 f0          	mov    -0x10(%rbp),%rax
    573b:	48 89 85 d0 fe ff ff 	mov    %rax,-0x130(%rbp)
    5742:	48 8b 45 f0          	mov    -0x10(%rbp),%rax
    5746:	48 8b 78 48          	mov    0x48(%rax),%rdi
    574a:	e8 b1 77 00 00       	call   cf00 <slipD_table>
    574f:	48 8b 40 08          	mov    0x8(%rax),%rax
    5753:	48 8b 4d f0          	mov    -0x10(%rbp),%rcx
    5757:	48 8b 79 48          	mov    0x48(%rcx),%rdi
    575b:	ff d0                	call   *%rax
    575d:	48 8b bd d0 fe ff ff 	mov    -0x130(%rbp),%rdi
    5764:	48 89 c6             	mov    %rax,%rsi
    5767:	e8 e4 5c 00 00       	call   b450 <slipC_pushEnvStack>
    576c:	48 8b 7d f0          	mov    -0x10(%rbp),%rdi
    5770:	48 8b 75 a8          	mov    -0x58(%rbp),%rsi
    5774:	31 d2                	xor    %edx,%edx
    5776:	e8 85 b2 00 00       	call   10a00 <slipV_callList>
    577b:	89 85 4c ff ff ff    	mov    %eax,-0xb4(%rbp)
    5781:	83 bd 4c ff ff ff 00 	cmpl   $0x0,-0xb4(%rbp)
    5788:	0f 8e 13 00 00 00    	jle    57a1 <_for+0x401>
    578e:	48 8b 7d f0          	mov    -0x10(%rbp),%rdi
    5792:	48 83 c7 08          	add    $0x8,%rdi
    5796:	8b b5 4c ff ff ff    	mov    -0xb4(%rbp),%esi
    579c:	e8 cf 82 00 00       	call   da70 <slipS_popValueNum>
    57a1:	48 8b 7d f0          	mov    -0x10(%rbp),%rdi
    57a5:	e8 e6 5c 00 00       	call   b490 <slipC_popEnvStack>
    57aa:	48 8b 7d f0          	mov    -0x10(%rbp),%rdi
    57ae:	48 8b b5 68 ff ff ff 	mov    -0x98(%rbp),%rsi
    57b5:	48 8b 95 70 ff ff ff 	mov    -0x90(%rbp),%rdx
    57bc:	8b 8d 78 ff ff ff    	mov    -0x88(%rbp),%ecx
    57c2:	4c 8d 85 64 ff ff ff 	lea    -0x9c(%rbp),%r8
    57c9:	e8 b2 2d 00 00       	call   8580 <load>
    57ce:	48 8b bd 68 ff ff ff 	mov    -0x98(%rbp),%rdi
    57d5:	8b b5 64 ff ff ff    	mov    -0x9c(%rbp),%esi
    57db:	e8 00 6e 00 00       	call   c5e0 <slipP_popLocalVar>
    57e0:	48 8b 85 68 ff ff ff 	mov    -0x98(%rbp),%rax
    57e7:	48 89 85 a0 fe ff ff 	mov    %rax,-0x160(%rbp)
    57ee:	8b bd 60 ff ff ff    	mov    -0xa0(%rbp),%edi
    57f4:	48 8b 85 68 ff ff ff 	mov    -0x98(%rbp),%rax
    57fb:	2b 78 18             	sub    0x18(%rax),%edi
    57fe:	e8 cd 36 00 00       	call   8ed0 <slipI_jmp>
    5803:	48 8b bd a0 fe ff ff 	mov    -0x160(%rbp),%rdi
    580a:	89 85 40 ff ff ff    	mov    %eax,-0xc0(%rbp)
    5810:	8b b5 40 ff ff ff    	mov    -0xc0(%rbp),%esi
    5816:	e8 05 6a 00 00       	call   c220 <slipP_addInstruction>
    581b:	89 85 48 ff ff ff    	mov    %eax,-0xb8(%rbp)
    5821:	8b 85 48 ff ff ff    	mov    -0xb8(%rbp),%eax
    5827:	83 c0 01             	add    $0x1,%eax
    582a:	2b 85 54 ff ff ff    	sub    -0xac(%rbp),%eax
    5830:	66 89 c2             	mov    %ax,%dx
    5833:	48 8b 85 68 ff ff ff 	mov    -0x98(%rbp),%rax
    583a:	48 8b 40 38          	mov    0x38(%rax),%rax
    583e:	48 63 8d 54 ff ff ff 	movslq -0xac(%rbp),%rcx
    5845:	66 89 54 88 02       	mov    %dx,0x2(%rax,%rcx,4)
    584a:	48 8b 7d f0          	mov    -0x10(%rbp),%rdi
    584e:	e8 0d 5d 00 00       	call   b560 <slipC_popLoopStack>
    5853:	48 89 85 38 ff ff ff 	mov    %rax,-0xc8(%rbp)
    585a:	48 8b bd 38 ff ff ff 	mov    -0xc8(%rbp),%rdi
    5861:	e8 3a 51 00 00       	call   a9a0 <slipM_getMeta>
    5866:	48 8b 40 28          	mov    0x28(%rax),%rax
    586a:	48 89 85 b0 fe ff ff 	mov    %rax,-0x150(%rbp)
    5871:	48 8b 85 38 ff ff ff 	mov    -0xc8(%rbp),%rax
    5878:	48 89 85 a8 fe ff ff 	mov    %rax,-0x158(%rbp)
    587f:	48 8b 45 f0          	mov    -0x10(%rbp),%rax
    5883:	48 8b 78 48          	mov    0x48(%rax),%rdi
    5887:	e8 94 75 00 00       	call   ce20 <slipD_str>
    588c:	48 8b 40 10          	mov    0x10(%rax),%rax
    5890:	48 8b 4d f0          	mov    -0x10(%rbp),%rcx
    5894:	48 8b 79 48          	mov    0x48(%rcx),%rdi
    5898:	48 8d 35 0c 29 01 00 	lea    0x1290c(%rip),%rsi        # 181ab <_IO_stdin_used+0x1ab>
    589f:	ff d0                	call   *%rax
    58a1:	48 8b bd a8 fe ff ff 	mov    -0x158(%rbp),%rdi
    58a8:	48 89 c1             	mov    %rax,%rcx
    58ab:	48 8b 85 b0 fe ff ff 	mov    -0x150(%rbp),%rax
    58b2:	48 89 8d 18 ff ff ff 	mov    %rcx,-0xe8(%rbp)
    58b9:	89 95 20 ff ff ff    	mov    %edx,-0xe0(%rbp)
    58bf:	48 8b b5 18 ff ff ff 	mov    -0xe8(%rbp),%rsi
    58c6:	8b 95 20 ff ff ff    	mov    -0xe0(%rbp),%edx
    58cc:	ff d0                	call   *%rax
    58ce:	48 89 85 28 ff ff ff 	mov    %rax,-0xd8(%rbp)
    58d5:	89 95 30 ff ff ff    	mov    %edx,-0xd0(%rbp)
    58db:	83 bd 30 ff ff ff 00 	cmpl   $0x0,-0xd0(%rbp)
    58e2:	0f 84 79 00 00 00    	je     5961 <_for+0x5c1>
    58e8:	48 8b 85 28 ff ff ff 	mov    -0xd8(%rbp),%rax
    58ef:	48 89 85 10 ff ff ff 	mov    %rax,-0xf0(%rbp)
    58f6:	48 8b 85 10 ff ff ff 	mov    -0xf0(%rbp),%rax
    58fd:	48 89 85 08 ff ff ff 	mov    %rax,-0xf8(%rbp)
    5904:	48 83 bd 08 ff ff ff 	cmpq   $0x0,-0xf8(%rbp)
    590b:	00 
    590c:	0f 84 4a 00 00 00    	je     595c <_for+0x5bc>
    5912:	8b 85 48 ff ff ff    	mov    -0xb8(%rbp),%eax
    5918:	83 c0 01             	add    $0x1,%eax
    591b:	48 98                	cltq
    591d:	48 8b 8d 08 ff ff ff 	mov    -0xf8(%rbp),%rcx
    5924:	48 2b 41 08          	sub    0x8(%rcx),%rax
    5928:	66 89 c2             	mov    %ax,%dx
    592b:	48 8b 85 68 ff ff ff 	mov    -0x98(%rbp),%rax
    5932:	48 8b 40 38          	mov    0x38(%rax),%rax
    5936:	48 8b 8d 08 ff ff ff 	mov    -0xf8(%rbp),%rcx
    593d:	48 8b 49 08          	mov    0x8(%rcx),%rcx
    5941:	66 89 54 88 02       	mov    %dx,0x2(%rax,%rcx,4)
    5946:	48 8b 85 08 ff ff ff 	mov    -0xf8(%rbp),%rax
    594d:	48 8b 00             	mov    (%rax),%rax
    5950:	48 89 85 08 ff ff ff 	mov    %rax,-0xf8(%rbp)
    5957:	e9 a8 ff ff ff       	jmp    5904 <_for+0x564>
    595c:	e9 00 00 00 00       	jmp    5961 <_for+0x5c1>
    5961:	48 8b bd 38 ff ff ff 	mov    -0xc8(%rbp),%rdi
    5968:	e8 33 50 00 00       	call   a9a0 <slipM_getMeta>
    596d:	48 8b 40 28          	mov    0x28(%rax),%rax
    5971:	48 89 85 98 fe ff ff 	mov    %rax,-0x168(%rbp)
    5978:	48 8b 85 38 ff ff ff 	mov    -0xc8(%rbp),%rax
    597f:	48 89 85 90 fe ff ff 	mov    %rax,-0x170(%rbp)
    5986:	48 8b 45 f0          	mov    -0x10(%rbp),%rax
    598a:	48 8b 78 48          	mov    0x48(%rax),%rdi
    598e:	e8 8d 74 00 00       	call   ce20 <slipD_str>
    5993:	48 8b 40 10          	mov    0x10(%rax),%rax
    5997:	48 8b 4d f0          	mov    -0x10(%rbp),%rcx
    599b:	48 8b 79 48          	mov    0x48(%rcx),%rdi
    599f:	48 8d 35 0b 28 01 00 	lea    0x1280b(%rip),%rsi        # 181b1 <_IO_stdin_used+0x1b1>
    59a6:	ff d0                	call   *%rax
    59a8:	48 8b bd 90 fe ff ff 	mov    -0x170(%rbp),%rdi
    59af:	48 89 c1             	mov    %rax,%rcx
    59b2:	48 8b 85 98 fe ff ff 	mov    -0x168(%rbp),%rax
    59b9:	48 89 8d e8 fe ff ff 	mov    %rcx,-0x118(%rbp)
    59c0:	89 95 f0 fe ff ff    	mov    %edx,-0x110(%rbp)
    59c6:	48 8b b5 e8 fe ff ff 	mov    -0x118(%rbp),%rsi
    59cd:	8b 95 f0 fe ff ff    	mov    -0x110(%rbp),%edx
    59d3:	ff d0                	call   *%rax
    59d5:	48 89 85 f8 fe ff ff 	mov    %rax,-0x108(%rbp)
    59dc:	89 95 00 ff ff ff    	mov    %edx,-0x100(%rbp)
    59e2:	48 8b 85 f8 fe ff ff 	mov    -0x108(%rbp),%rax
    59e9:	48 89 85 28 ff ff ff 	mov    %rax,-0xd8(%rbp)
    59f0:	48 8b 85 00 ff ff ff 	mov    -0x100(%rbp),%rax
    59f7:	48 89 85 30 ff ff ff 	mov    %rax,-0xd0(%rbp)
    59fe:	83 bd 30 ff ff ff 00 	cmpl   $0x0,-0xd0(%rbp)
    5a05:	0f 84 75 00 00 00    	je     5a80 <_for+0x6e0>
    5a0b:	48 8b 85 28 ff ff ff 	mov    -0xd8(%rbp),%rax
    5a12:	48 89 85 e0 fe ff ff 	mov    %rax,-0x120(%rbp)
    5a19:	48 8b 85 e0 fe ff ff 	mov    -0x120(%rbp),%rax
    5a20:	48 89 85 d8 fe ff ff 	mov    %rax,-0x128(%rbp)
    5a27:	48 83 bd d8 fe ff ff 	cmpq   $0x0,-0x128(%rbp)
    5a2e:	00 
    5a2f:	0f 84 46 00 00 00    	je     5a7b <_for+0x6db>
    5a35:	48 63 85 60 ff ff ff 	movslq -0xa0(%rbp),%rax
    5a3c:	48 8b 8d d8 fe ff ff 	mov    -0x128(%rbp),%rcx
    5a43:	48 2b 41 08          	sub    0x8(%rcx),%rax
    5a47:	66 89 c2             	mov    %ax,%dx
    5a4a:	48 8b 85 68 ff ff ff 	mov    -0x98(%rbp),%rax
    5a51:	48 8b 40 38          	mov    0x38(%rax),%rax
    5a55:	48 8b 8d d8 fe ff ff 	mov    -0x128(%rbp),%rcx
    5a5c:	48 8b 49 08          	mov    0x8(%rcx),%rcx
    5a60:	66 89 54 88 02       	mov    %dx,0x2(%rax,%rcx,4)
    5a65:	48 8b 85 d8 fe ff ff 	mov    -0x128(%rbp),%rax
    5a6c:	48 8b 00             	mov    (%rax),%rax
    5a6f:	48 89 85 d8 fe ff ff 	mov    %rax,-0x128(%rbp)
    5a76:	e9 ac ff ff ff       	jmp    5a27 <_for+0x687>
    5a7b:	e9 00 00 00 00       	jmp    5a80 <_for+0x6e0>
    5a80:	31 ff                	xor    %edi,%edi
    5a82:	be 02 00 00 00       	mov    $0x2,%esi
    5a87:	e8 84 30 00 00       	call   8b10 <slip_Return>
    5a8c:	48 89 45 f8          	mov    %rax,-0x8(%rbp)
    5a90:	48 8b 45 f8          	mov    -0x8(%rbp),%rax
    5a94:	48 81 c4 70 01 00 00 	add    $0x170,%rsp
    5a9b:	5d                   	pop    %rbp
    5a9c:	c3                   	ret
    5a9d:	0f 1f 00             	nopl   (%rax)

0000000000005aa0 <_foreach>:
    5aa0:	55                   	push   %rbp
    5aa1:	48 89 e5             	mov    %rsp,%rbp
    5aa4:	48 81 ec 80 00 00 00 	sub    $0x80,%rsp
    5aab:	48 89 7d f0          	mov    %rdi,-0x10(%rbp)
    5aaf:	89 75 ec             	mov    %esi,-0x14(%rbp)
    5ab2:	83 7d ec 01          	cmpl   $0x1,-0x14(%rbp)
    5ab6:	0f 84 23 00 00 00    	je     5adf <_foreach+0x3f>
    5abc:	48 8d 3d a1 27 01 00 	lea    0x127a1(%rip),%rdi        # 18264 <_IO_stdin_used+0x264>
    5ac3:	b0 00                	mov    $0x0,%al
    5ac5:	e8 06 d6 ff ff       	call   30d0 <printf@plt>
    5aca:	bf ff ff ff ff       	mov    $0xffffffff,%edi
    5acf:	31 f6                	xor    %esi,%esi
    5ad1:	e8 3a 30 00 00       	call   8b10 <slip_Return>
    5ad6:	48 89 45 f8          	mov    %rax,-0x8(%rbp)
    5ada:	e9 d2 01 00 00       	jmp    5cb1 <_foreach+0x211>
    5adf:	83 7d ec 01          	cmpl   $0x1,-0x14(%rbp)
    5ae3:	0f 8c 05 00 00 00    	jl     5aee <_foreach+0x4e>
    5ae9:	e9 1f 00 00 00       	jmp    5b0d <_foreach+0x6d>
    5aee:	48 8d 3d f1 26 01 00 	lea    0x126f1(%rip),%rdi        # 181e6 <_IO_stdin_used+0x1e6>
    5af5:	48 8d 35 f3 26 01 00 	lea    0x126f3(%rip),%rsi        # 181ef <_IO_stdin_used+0x1ef>
    5afc:	ba b6 02 00 00       	mov    $0x2b6,%edx
    5b01:	48 8d 0d 56 29 01 00 	lea    0x12956(%rip),%rcx        # 1845e <_IO_stdin_used+0x45e>
    5b08:	e8 e3 d5 ff ff       	call   30f0 <__assert_fail@plt>
    5b0d:	c7 45 e8 01 00 00 00 	movl   $0x1,-0x18(%rbp)
    5b14:	48 8b 7d f0          	mov    -0x10(%rbp),%rdi
    5b18:	31 f6                	xor    %esi,%esi
    5b1a:	2b 75 ec             	sub    -0x14(%rbp),%esi
    5b1d:	e8 9e 93 00 00       	call   eec0 <slipV_getValue>
    5b22:	48 89 45 d8          	mov    %rax,-0x28(%rbp)
    5b26:	89 55 e0             	mov    %edx,-0x20(%rbp)
    5b29:	48 8b 7d f0          	mov    -0x10(%rbp),%rdi
    5b2d:	48 83 c7 08          	add    $0x8,%rdi
    5b31:	8b 75 ec             	mov    -0x14(%rbp),%esi
    5b34:	e8 37 7f 00 00       	call   da70 <slipS_popValueNum>
    5b39:	81 7d e0 00 01 00 00 	cmpl   $0x100,-0x20(%rbp)
    5b40:	0f 84 23 00 00 00    	je     5b69 <_foreach+0xc9>
    5b46:	48 8d 3d 5a 27 01 00 	lea    0x1275a(%rip),%rdi        # 182a7 <_IO_stdin_used+0x2a7>
    5b4d:	b0 00                	mov    $0x0,%al
    5b4f:	e8 7c d5 ff ff       	call   30d0 <printf@plt>
    5b54:	bf ff ff ff ff       	mov    $0xffffffff,%edi
    5b59:	31 f6                	xor    %esi,%esi
    5b5b:	e8 b0 2f 00 00       	call   8b10 <slip_Return>
    5b60:	48 89 45 f8          	mov    %rax,-0x8(%rbp)
    5b64:	e9 48 01 00 00       	jmp    5cb1 <_foreach+0x211>
    5b69:	48 8b 45 d8          	mov    -0x28(%rbp),%rax
    5b6d:	48 89 45 d0          	mov    %rax,-0x30(%rbp)
    5b71:	48 8b 45 d0          	mov    -0x30(%rbp),%rax
    5b75:	48 89 45 c8          	mov    %rax,-0x38(%rbp)
    5b79:	48 8d 7d b8          	lea    -0x48(%rbp),%rdi
    5b7d:	31 f6                	xor    %esi,%esi
    5b7f:	ba 10 00 00 00       	mov    $0x10,%edx
    5b84:	e8 77 d5 ff ff       	call   3100 <memset@plt>
    5b89:	48 8d 7d c8          	lea    -0x38(%rbp),%rdi
    5b8d:	be 08 01 00 00       	mov    $0x108,%esi
    5b92:	48 8d 55 b8          	lea    -0x48(%rbp),%rdx
    5b96:	e8 b5 62 00 00       	call   be50 <slipL_pullListArgument>
    5b9b:	83 f8 00             	cmp    $0x0,%eax
    5b9e:	0f 84 15 00 00 00    	je     5bb9 <_foreach+0x119>
    5ba4:	bf ff ff ff ff       	mov    $0xffffffff,%edi
    5ba9:	31 f6                	xor    %esi,%esi
    5bab:	e8 60 2f 00 00       	call   8b10 <slip_Return>
    5bb0:	48 89 45 f8          	mov    %rax,-0x8(%rbp)
    5bb4:	e9 f8 00 00 00       	jmp    5cb1 <_foreach+0x211>
    5bb9:	48 8d 7d a8          	lea    -0x58(%rbp),%rdi
    5bbd:	31 f6                	xor    %esi,%esi
    5bbf:	ba 10 00 00 00       	mov    $0x10,%edx
    5bc4:	e8 37 d5 ff ff       	call   3100 <memset@plt>
    5bc9:	48 8d 7d c8          	lea    -0x38(%rbp),%rdi
    5bcd:	be 08 00 00 00       	mov    $0x8,%esi
    5bd2:	48 8d 55 a8          	lea    -0x58(%rbp),%rdx
    5bd6:	e8 75 62 00 00       	call   be50 <slipL_pullListArgument>
    5bdb:	83 f8 00             	cmp    $0x0,%eax
    5bde:	0f 84 15 00 00 00    	je     5bf9 <_foreach+0x159>
    5be4:	bf ff ff ff ff       	mov    $0xffffffff,%edi
    5be9:	31 f6                	xor    %esi,%esi
    5beb:	e8 20 2f 00 00       	call   8b10 <slip_Return>
    5bf0:	48 89 45 f8          	mov    %rax,-0x8(%rbp)
    5bf4:	e9 b8 00 00 00       	jmp    5cb1 <_foreach+0x211>
    5bf9:	48 8d 7d 98          	lea    -0x68(%rbp),%rdi
    5bfd:	31 f6                	xor    %esi,%esi
    5bff:	ba 10 00 00 00       	mov    $0x10,%edx
    5c04:	e8 f7 d4 ff ff       	call   3100 <memset@plt>
    5c09:	48 8d 7d c8          	lea    -0x38(%rbp),%rdi
    5c0d:	be 08 01 00 00       	mov    $0x108,%esi
    5c12:	48 8d 55 98          	lea    -0x68(%rbp),%rdx
    5c16:	e8 35 62 00 00       	call   be50 <slipL_pullListArgument>
    5c1b:	83 f8 00             	cmp    $0x0,%eax
    5c1e:	0f 84 15 00 00 00    	je     5c39 <_foreach+0x199>
    5c24:	bf ff ff ff ff       	mov    $0xffffffff,%edi
    5c29:	31 f6                	xor    %esi,%esi
    5c2b:	e8 e0 2e 00 00       	call   8b10 <slip_Return>
    5c30:	48 89 45 f8          	mov    %rax,-0x8(%rbp)
    5c34:	e9 78 00 00 00       	jmp    5cb1 <_foreach+0x211>
    5c39:	48 8d 7d 88          	lea    -0x78(%rbp),%rdi
    5c3d:	31 f6                	xor    %esi,%esi
    5c3f:	ba 10 00 00 00       	mov    $0x10,%edx
    5c44:	e8 b7 d4 ff ff       	call   3100 <memset@plt>
    5c49:	48 8d 7d c8          	lea    -0x38(%rbp),%rdi
    5c4d:	be 00 01 00 00       	mov    $0x100,%esi
    5c52:	48 8d 55 88          	lea    -0x78(%rbp),%rdx
    5c56:	e8 f5 61 00 00       	call   be50 <slipL_pullListArgument>
    5c5b:	83 f8 00             	cmp    $0x0,%eax
    5c5e:	0f 84 15 00 00 00    	je     5c79 <_foreach+0x1d9>
    5c64:	bf ff ff ff ff       	mov    $0xffffffff,%edi
    5c69:	31 f6                	xor    %esi,%esi
    5c6b:	e8 a0 2e 00 00       	call   8b10 <slip_Return>
    5c70:	48 89 45 f8          	mov    %rax,-0x8(%rbp)
    5c74:	e9 38 00 00 00       	jmp    5cb1 <_foreach+0x211>
    5c79:	e9 00 00 00 00       	jmp    5c7e <_foreach+0x1de>
    5c7e:	48 8d 05 8f a7 01 00 	lea    0x1a78f(%rip),%rax        # 20414 <slip_debug_compile>
    5c85:	f6 00 01             	testb  $0x1,(%rax)
    5c88:	0f 84 0e 00 00 00    	je     5c9c <_foreach+0x1fc>
    5c8e:	48 8d 3d e9 27 01 00 	lea    0x127e9(%rip),%rdi        # 1847e <_IO_stdin_used+0x47e>
    5c95:	b0 00                	mov    $0x0,%al
    5c97:	e8 34 d4 ff ff       	call   30d0 <printf@plt>
    5c9c:	e9 00 00 00 00       	jmp    5ca1 <_foreach+0x201>
    5ca1:	31 ff                	xor    %edi,%edi
    5ca3:	be 04 00 00 00       	mov    $0x4,%esi
    5ca8:	e8 63 2e 00 00       	call   8b10 <slip_Return>
    5cad:	48 89 45 f8          	mov    %rax,-0x8(%rbp)
    5cb1:	48 8b 45 f8          	mov    -0x8(%rbp),%rax
    5cb5:	48 81 c4 80 00 00 00 	add    $0x80,%rsp
    5cbc:	5d                   	pop    %rbp
    5cbd:	c3                   	ret
    5cbe:	66 90                	xchg   %ax,%ax

0000000000005cc0 <_dowhile>:
    5cc0:	55                   	push   %rbp
    5cc1:	48 89 e5             	mov    %rsp,%rbp
    5cc4:	48 81 ec 50 01 00 00 	sub    $0x150,%rsp
    5ccb:	48 89 7d f0          	mov    %rdi,-0x10(%rbp)
    5ccf:	89 75 ec             	mov    %esi,-0x14(%rbp)
    5cd2:	83 7d ec 01          	cmpl   $0x1,-0x14(%rbp)
    5cd6:	0f 84 23 00 00 00    	je     5cff <_dowhile+0x3f>
    5cdc:	48 8d 3d 81 25 01 00 	lea    0x12581(%rip),%rdi        # 18264 <_IO_stdin_used+0x264>
    5ce3:	b0 00                	mov    $0x0,%al
    5ce5:	e8 e6 d3 ff ff       	call   30d0 <printf@plt>
    5cea:	bf ff ff ff ff       	mov    $0xffffffff,%edi
    5cef:	31 f6                	xor    %esi,%esi
    5cf1:	e8 1a 2e 00 00       	call   8b10 <slip_Return>
    5cf6:	48 89 45 f8          	mov    %rax,-0x8(%rbp)
    5cfa:	e9 ba 05 00 00       	jmp    62b9 <_dowhile+0x5f9>
    5cff:	83 7d ec 01          	cmpl   $0x1,-0x14(%rbp)
    5d03:	0f 8c 05 00 00 00    	jl     5d0e <_dowhile+0x4e>
    5d09:	e9 1f 00 00 00       	jmp    5d2d <_dowhile+0x6d>
    5d0e:	48 8d 3d d1 24 01 00 	lea    0x124d1(%rip),%rdi        # 181e6 <_IO_stdin_used+0x1e6>
    5d15:	48 8d 35 d3 24 01 00 	lea    0x124d3(%rip),%rsi        # 181ef <_IO_stdin_used+0x1ef>
    5d1c:	ba c2 02 00 00       	mov    $0x2c2,%edx
    5d21:	48 8d 0d 66 27 01 00 	lea    0x12766(%rip),%rcx        # 1848e <_IO_stdin_used+0x48e>
    5d28:	e8 c3 d3 ff ff       	call   30f0 <__assert_fail@plt>
    5d2d:	c7 45 e8 01 00 00 00 	movl   $0x1,-0x18(%rbp)
    5d34:	48 8b 7d f0          	mov    -0x10(%rbp),%rdi
    5d38:	31 f6                	xor    %esi,%esi
    5d3a:	2b 75 ec             	sub    -0x14(%rbp),%esi
    5d3d:	e8 7e 91 00 00       	call   eec0 <slipV_getValue>
    5d42:	48 89 45 d8          	mov    %rax,-0x28(%rbp)
    5d46:	89 55 e0             	mov    %edx,-0x20(%rbp)
    5d49:	48 8b 7d f0          	mov    -0x10(%rbp),%rdi
    5d4d:	48 83 c7 08          	add    $0x8,%rdi
    5d51:	8b 75 ec             	mov    -0x14(%rbp),%esi
    5d54:	e8 17 7d 00 00       	call   da70 <slipS_popValueNum>
    5d59:	81 7d e0 00 01 00 00 	cmpl   $0x100,-0x20(%rbp)
    5d60:	0f 84 23 00 00 00    	je     5d89 <_dowhile+0xc9>
    5d66:	48 8d 3d 3a 25 01 00 	lea    0x1253a(%rip),%rdi        # 182a7 <_IO_stdin_used+0x2a7>
    5d6d:	b0 00                	mov    $0x0,%al
    5d6f:	e8 5c d3 ff ff       	call   30d0 <printf@plt>
    5d74:	bf ff ff ff ff       	mov    $0xffffffff,%edi
    5d79:	31 f6                	xor    %esi,%esi
    5d7b:	e8 90 2d 00 00       	call   8b10 <slip_Return>
    5d80:	48 89 45 f8          	mov    %rax,-0x8(%rbp)
    5d84:	e9 30 05 00 00       	jmp    62b9 <_dowhile+0x5f9>
    5d89:	48 8b 45 d8          	mov    -0x28(%rbp),%rax
    5d8d:	48 89 45 d0          	mov    %rax,-0x30(%rbp)
    5d91:	48 8b 45 d0          	mov    -0x30(%rbp),%rax
    5d95:	48 89 45 c8          	mov    %rax,-0x38(%rbp)
    5d99:	48 8d 7d b8          	lea    -0x48(%rbp),%rdi
    5d9d:	31 f6                	xor    %esi,%esi
    5d9f:	ba 10 00 00 00       	mov    $0x10,%edx
    5da4:	e8 57 d3 ff ff       	call   3100 <memset@plt>
    5da9:	48 8d 7d c8          	lea    -0x38(%rbp),%rdi
    5dad:	be 00 01 00 00       	mov    $0x100,%esi
    5db2:	48 8d 55 b8          	lea    -0x48(%rbp),%rdx
    5db6:	e8 95 60 00 00       	call   be50 <slipL_pullListArgument>
    5dbb:	83 f8 00             	cmp    $0x0,%eax
    5dbe:	0f 84 15 00 00 00    	je     5dd9 <_dowhile+0x119>
    5dc4:	bf ff ff ff ff       	mov    $0xffffffff,%edi
    5dc9:	31 f6                	xor    %esi,%esi
    5dcb:	e8 40 2d 00 00       	call   8b10 <slip_Return>
    5dd0:	48 89 45 f8          	mov    %rax,-0x8(%rbp)
    5dd4:	e9 e0 04 00 00       	jmp    62b9 <_dowhile+0x5f9>
    5dd9:	48 8d 7d a8          	lea    -0x58(%rbp),%rdi
    5ddd:	31 f6                	xor    %esi,%esi
    5ddf:	ba 10 00 00 00       	mov    $0x10,%edx
    5de4:	e8 17 d3 ff ff       	call   3100 <memset@plt>
    5de9:	48 8d 7d c8          	lea    -0x38(%rbp),%rdi
    5ded:	be 08 00 00 00       	mov    $0x8,%esi
    5df2:	48 8d 55 a8          	lea    -0x58(%rbp),%rdx
    5df6:	e8 55 60 00 00       	call   be50 <slipL_pullListArgument>
    5dfb:	83 f8 00             	cmp    $0x0,%eax
    5dfe:	0f 84 15 00 00 00    	je     5e19 <_dowhile+0x159>
    5e04:	bf ff ff ff ff       	mov    $0xffffffff,%edi
    5e09:	31 f6                	xor    %esi,%esi
    5e0b:	e8 00 2d 00 00       	call   8b10 <slip_Return>
    5e10:	48 89 45 f8          	mov    %rax,-0x8(%rbp)
    5e14:	e9 a0 04 00 00       	jmp    62b9 <_dowhile+0x5f9>
    5e19:	48 8d 7d 98          	lea    -0x68(%rbp),%rdi
    5e1d:	31 f6                	xor    %esi,%esi
    5e1f:	ba 10 00 00 00       	mov    $0x10,%edx
    5e24:	e8 d7 d2 ff ff       	call   3100 <memset@plt>
    5e29:	48 8d 7d c8          	lea    -0x38(%rbp),%rdi
    5e2d:	be 00 01 00 00       	mov    $0x100,%esi
    5e32:	48 8d 55 98          	lea    -0x68(%rbp),%rdx
    5e36:	e8 15 60 00 00       	call   be50 <slipL_pullListArgument>
    5e3b:	83 f8 00             	cmp    $0x0,%eax
    5e3e:	0f 84 15 00 00 00    	je     5e59 <_dowhile+0x199>
    5e44:	bf ff ff ff ff       	mov    $0xffffffff,%edi
    5e49:	31 f6                	xor    %esi,%esi
    5e4b:	e8 c0 2c 00 00       	call   8b10 <slip_Return>
    5e50:	48 89 45 f8          	mov    %rax,-0x8(%rbp)
    5e54:	e9 60 04 00 00       	jmp    62b9 <_dowhile+0x5f9>
    5e59:	e9 00 00 00 00       	jmp    5e5e <_dowhile+0x19e>
    5e5e:	48 8d 05 af a5 01 00 	lea    0x1a5af(%rip),%rax        # 20414 <slip_debug_compile>
    5e65:	f6 00 01             	testb  $0x1,(%rax)
    5e68:	0f 84 0e 00 00 00    	je     5e7c <_dowhile+0x1bc>
    5e6e:	48 8d 3d 39 26 01 00 	lea    0x12639(%rip),%rdi        # 184ae <_IO_stdin_used+0x4ae>
    5e75:	b0 00                	mov    $0x0,%al
    5e77:	e8 54 d2 ff ff       	call   30d0 <printf@plt>
    5e7c:	e9 00 00 00 00       	jmp    5e81 <_dowhile+0x1c1>
    5e81:	48 8b 7d a8          	mov    -0x58(%rbp),%rdi
    5e85:	48 8d 35 0a 23 01 00 	lea    0x1230a(%rip),%rsi        # 18196 <_IO_stdin_used+0x196>
    5e8c:	e8 8f d2 ff ff       	call   3120 <strcmp@plt>
    5e91:	83 f8 00             	cmp    $0x0,%eax
    5e94:	0f 84 2d 00 00 00    	je     5ec7 <_dowhile+0x207>
    5e9a:	48 8b 05 4f a1 01 00 	mov    0x1a14f(%rip),%rax        # 1fff0 <stderr@GLIBC_2.2.5>
    5ea1:	48 8b 38             	mov    (%rax),%rdi
    5ea4:	48 8d 35 14 26 01 00 	lea    0x12614(%rip),%rsi        # 184bf <_IO_stdin_used+0x4bf>
    5eab:	b0 00                	mov    $0x0,%al
    5ead:	e8 7e d2 ff ff       	call   3130 <fprintf@plt>
    5eb2:	bf ff ff ff ff       	mov    $0xffffffff,%edi
    5eb7:	31 f6                	xor    %esi,%esi
    5eb9:	e8 52 2c 00 00       	call   8b10 <slip_Return>
    5ebe:	48 89 45 f8          	mov    %rax,-0x8(%rbp)
    5ec2:	e9 f2 03 00 00       	jmp    62b9 <_dowhile+0x5f9>
    5ec7:	48 8b 7d f0          	mov    -0x10(%rbp),%rdi
    5ecb:	be ff ff ff ff       	mov    $0xffffffff,%esi
    5ed0:	e8 1b 56 00 00       	call   b4f0 <slipC_getFunc>
    5ed5:	48 89 45 90          	mov    %rax,-0x70(%rbp)
    5ed9:	48 8b 45 90          	mov    -0x70(%rbp),%rax
    5edd:	8b 40 18             	mov    0x18(%rax),%eax
    5ee0:	89 45 8c             	mov    %eax,-0x74(%rbp)
    5ee3:	48 8b 45 f0          	mov    -0x10(%rbp),%rax
    5ee7:	48 89 85 f0 fe ff ff 	mov    %rax,-0x110(%rbp)
    5eee:	48 8b 45 f0          	mov    -0x10(%rbp),%rax
    5ef2:	48 8b 78 48          	mov    0x48(%rax),%rdi
    5ef6:	e8 05 70 00 00       	call   cf00 <slipD_table>
    5efb:	48 8b 40 08          	mov    0x8(%rax),%rax
    5eff:	48 8b 4d f0          	mov    -0x10(%rbp),%rcx
    5f03:	48 8b 79 48          	mov    0x48(%rcx),%rdi
    5f07:	ff d0                	call   *%rax
    5f09:	48 8b bd f0 fe ff ff 	mov    -0x110(%rbp),%rdi
    5f10:	48 89 c6             	mov    %rax,%rsi
    5f13:	e8 08 56 00 00       	call   b520 <slipC_pushLoopStack>
    5f18:	48 8b 45 f0          	mov    -0x10(%rbp),%rax
    5f1c:	48 89 85 f8 fe ff ff 	mov    %rax,-0x108(%rbp)
    5f23:	48 8b 45 f0          	mov    -0x10(%rbp),%rax
    5f27:	48 8b 78 48          	mov    0x48(%rax),%rdi
    5f2b:	e8 d0 6f 00 00       	call   cf00 <slipD_table>
    5f30:	48 8b 40 08          	mov    0x8(%rax),%rax
    5f34:	48 8b 4d f0          	mov    -0x10(%rbp),%rcx
    5f38:	48 8b 79 48          	mov    0x48(%rcx),%rdi
    5f3c:	ff d0                	call   *%rax
    5f3e:	48 8b bd f8 fe ff ff 	mov    -0x108(%rbp),%rdi
    5f45:	48 89 c6             	mov    %rax,%rsi
    5f48:	e8 03 55 00 00       	call   b450 <slipC_pushEnvStack>
    5f4d:	48 8b 7d f0          	mov    -0x10(%rbp),%rdi
    5f51:	48 8b 75 b8          	mov    -0x48(%rbp),%rsi
    5f55:	31 d2                	xor    %edx,%edx
    5f57:	e8 a4 aa 00 00       	call   10a00 <slipV_callList>
    5f5c:	89 45 88             	mov    %eax,-0x78(%rbp)
    5f5f:	83 7d 88 00          	cmpl   $0x0,-0x78(%rbp)
    5f63:	0f 8e 10 00 00 00    	jle    5f79 <_dowhile+0x2b9>
    5f69:	48 8b 7d f0          	mov    -0x10(%rbp),%rdi
    5f6d:	48 83 c7 08          	add    $0x8,%rdi
    5f71:	8b 75 88             	mov    -0x78(%rbp),%esi
    5f74:	e8 f7 7a 00 00       	call   da70 <slipS_popValueNum>
    5f79:	48 8b 7d f0          	mov    -0x10(%rbp),%rdi
    5f7d:	e8 0e 55 00 00       	call   b490 <slipC_popEnvStack>
    5f82:	c7 45 84 00 00 00 00 	movl   $0x0,-0x7c(%rbp)
    5f89:	48 8b 7d f0          	mov    -0x10(%rbp),%rdi
    5f8d:	48 8b 75 90          	mov    -0x70(%rbp),%rsi
    5f91:	48 8b 55 98          	mov    -0x68(%rbp),%rdx
    5f95:	8b 4d a0             	mov    -0x60(%rbp),%ecx
    5f98:	4c 8d 45 84          	lea    -0x7c(%rbp),%r8
    5f9c:	e8 df 25 00 00       	call   8580 <load>
    5fa1:	89 45 80             	mov    %eax,-0x80(%rbp)
    5fa4:	48 8b 45 90          	mov    -0x70(%rbp),%rax
    5fa8:	48 89 85 c8 fe ff ff 	mov    %rax,-0x138(%rbp)
    5faf:	8b 45 80             	mov    -0x80(%rbp),%eax
    5fb2:	66 89 c1             	mov    %ax,%cx
    5fb5:	8b 45 80             	mov    -0x80(%rbp),%eax
    5fb8:	0f b7 f9             	movzwl %cx,%edi
    5fbb:	0f b7 f0             	movzwl %ax,%esi
    5fbe:	e8 3d 2f 00 00       	call   8f00 <slipI_not>
    5fc3:	48 8b bd c8 fe ff ff 	mov    -0x138(%rbp),%rdi
    5fca:	89 85 78 ff ff ff    	mov    %eax,-0x88(%rbp)
    5fd0:	8b b5 78 ff ff ff    	mov    -0x88(%rbp),%esi
    5fd6:	e8 45 62 00 00       	call   c220 <slipP_addInstruction>
    5fdb:	48 8b 45 90          	mov    -0x70(%rbp),%rax
    5fdf:	48 89 85 d0 fe ff ff 	mov    %rax,-0x130(%rbp)
    5fe6:	8b 45 80             	mov    -0x80(%rbp),%eax
    5fe9:	31 f6                	xor    %esi,%esi
    5feb:	0f b7 f8             	movzwl %ax,%edi
    5fee:	e8 8d 2e 00 00       	call   8e80 <slipI_cjp>
    5ff3:	48 8b bd d0 fe ff ff 	mov    -0x130(%rbp),%rdi
    5ffa:	89 85 70 ff ff ff    	mov    %eax,-0x90(%rbp)
    6000:	8b b5 70 ff ff ff    	mov    -0x90(%rbp),%esi
    6006:	e8 15 62 00 00       	call   c220 <slipP_addInstruction>
    600b:	89 85 74 ff ff ff    	mov    %eax,-0x8c(%rbp)
    6011:	48 8b 7d 90          	mov    -0x70(%rbp),%rdi
    6015:	8b 75 84             	mov    -0x7c(%rbp),%esi
    6018:	e8 c3 65 00 00       	call   c5e0 <slipP_popLocalVar>
    601d:	48 8b 45 90          	mov    -0x70(%rbp),%rax
    6021:	48 89 85 d8 fe ff ff 	mov    %rax,-0x128(%rbp)
    6028:	8b 7d 8c             	mov    -0x74(%rbp),%edi
    602b:	48 8b 45 90          	mov    -0x70(%rbp),%rax
    602f:	2b 78 18             	sub    0x18(%rax),%edi
    6032:	e8 99 2e 00 00       	call   8ed0 <slipI_jmp>
    6037:	48 8b bd d8 fe ff ff 	mov    -0x128(%rbp),%rdi
    603e:	89 85 68 ff ff ff    	mov    %eax,-0x98(%rbp)
    6044:	8b b5 68 ff ff ff    	mov    -0x98(%rbp),%esi
    604a:	e8 d1 61 00 00       	call   c220 <slipP_addInstruction>
    604f:	89 85 6c ff ff ff    	mov    %eax,-0x94(%rbp)
    6055:	8b 85 6c ff ff ff    	mov    -0x94(%rbp),%eax
    605b:	83 c0 01             	add    $0x1,%eax
    605e:	2b 85 74 ff ff ff    	sub    -0x8c(%rbp),%eax
    6064:	66 89 c2             	mov    %ax,%dx
    6067:	48 8b 45 90          	mov    -0x70(%rbp),%rax
    606b:	48 8b 40 38          	mov    0x38(%rax),%rax
    606f:	48 63 8d 74 ff ff ff 	movslq -0x8c(%rbp),%rcx
    6076:	66 89 54 88 02       	mov    %dx,0x2(%rax,%rcx,4)
    607b:	48 8b 7d f0          	mov    -0x10(%rbp),%rdi
    607f:	e8 dc 54 00 00       	call   b560 <slipC_popLoopStack>
    6084:	48 89 85 60 ff ff ff 	mov    %rax,-0xa0(%rbp)
    608b:	48 8b bd 60 ff ff ff 	mov    -0xa0(%rbp),%rdi
    6092:	e8 09 49 00 00       	call   a9a0 <slipM_getMeta>
    6097:	48 8b 40 28          	mov    0x28(%rax),%rax
    609b:	48 89 85 e8 fe ff ff 	mov    %rax,-0x118(%rbp)
    60a2:	48 8b 85 60 ff ff ff 	mov    -0xa0(%rbp),%rax
    60a9:	48 89 85 e0 fe ff ff 	mov    %rax,-0x120(%rbp)
    60b0:	48 8b 45 f0          	mov    -0x10(%rbp),%rax
    60b4:	48 8b 78 48          	mov    0x48(%rax),%rdi
    60b8:	e8 63 6d 00 00       	call   ce20 <slipD_str>
    60bd:	48 8b 40 10          	mov    0x10(%rax),%rax
    60c1:	48 8b 4d f0          	mov    -0x10(%rbp),%rcx
    60c5:	48 8b 79 48          	mov    0x48(%rcx),%rdi
    60c9:	48 8d 35 db 20 01 00 	lea    0x120db(%rip),%rsi        # 181ab <_IO_stdin_used+0x1ab>
    60d0:	ff d0                	call   *%rax
    60d2:	48 8b bd e0 fe ff ff 	mov    -0x120(%rbp),%rdi
    60d9:	48 89 c1             	mov    %rax,%rcx
    60dc:	48 8b 85 e8 fe ff ff 	mov    -0x118(%rbp),%rax
    60e3:	48 89 8d 40 ff ff ff 	mov    %rcx,-0xc0(%rbp)
    60ea:	89 95 48 ff ff ff    	mov    %edx,-0xb8(%rbp)
    60f0:	48 8b b5 40 ff ff ff 	mov    -0xc0(%rbp),%rsi
    60f7:	8b 95 48 ff ff ff    	mov    -0xb8(%rbp),%edx
    60fd:	ff d0                	call   *%rax
    60ff:	48 89 85 50 ff ff ff 	mov    %rax,-0xb0(%rbp)
    6106:	89 95 58 ff ff ff    	mov    %edx,-0xa8(%rbp)
    610c:	83 bd 58 ff ff ff 00 	cmpl   $0x0,-0xa8(%rbp)
    6113:	0f 84 76 00 00 00    	je     618f <_dowhile+0x4cf>
    6119:	48 8b 85 50 ff ff ff 	mov    -0xb0(%rbp),%rax
    6120:	48 89 85 38 ff ff ff 	mov    %rax,-0xc8(%rbp)
    6127:	48 8b 85 38 ff ff ff 	mov    -0xc8(%rbp),%rax
    612e:	48 89 85 30 ff ff ff 	mov    %rax,-0xd0(%rbp)
    6135:	48 83 bd 30 ff ff ff 	cmpq   $0x0,-0xd0(%rbp)
    613c:	00 
    613d:	0f 84 47 00 00 00    	je     618a <_dowhile+0x4ca>
    6143:	8b 85 6c ff ff ff    	mov    -0x94(%rbp),%eax
    6149:	83 c0 01             	add    $0x1,%eax
    614c:	48 98                	cltq
    614e:	48 8b 8d 30 ff ff ff 	mov    -0xd0(%rbp),%rcx
    6155:	48 2b 41 08          	sub    0x8(%rcx),%rax
    6159:	66 89 c2             	mov    %ax,%dx
    615c:	48 8b 45 90          	mov    -0x70(%rbp),%rax
    6160:	48 8b 40 38          	mov    0x38(%rax),%rax
    6164:	48 8b 8d 30 ff ff ff 	mov    -0xd0(%rbp),%rcx
    616b:	48 8b 49 08          	mov    0x8(%rcx),%rcx
    616f:	66 89 54 88 02       	mov    %dx,0x2(%rax,%rcx,4)
    6174:	48 8b 85 30 ff ff ff 	mov    -0xd0(%rbp),%rax
    617b:	48 8b 00             	mov    (%rax),%rax
    617e:	48 89 85 30 ff ff ff 	mov    %rax,-0xd0(%rbp)
    6185:	e9 ab ff ff ff       	jmp    6135 <_dowhile+0x475>
    618a:	e9 00 00 00 00       	jmp    618f <_dowhile+0x4cf>
    618f:	48 8b bd 60 ff ff ff 	mov    -0xa0(%rbp),%rdi
    6196:	e8 05 48 00 00       	call   a9a0 <slipM_getMeta>
    619b:	48 8b 40 28          	mov    0x28(%rax),%rax
    619f:	48 89 85 c0 fe ff ff 	mov    %rax,-0x140(%rbp)
    61a6:	48 8b 85 60 ff ff ff 	mov    -0xa0(%rbp),%rax
    61ad:	48 89 85 b8 fe ff ff 	mov    %rax,-0x148(%rbp)
    61b4:	48 8b 45 f0          	mov    -0x10(%rbp),%rax
    61b8:	48 8b 78 48          	mov    0x48(%rax),%rdi
    61bc:	e8 5f 6c 00 00       	call   ce20 <slipD_str>
    61c1:	48 8b 40 10          	mov    0x10(%rax),%rax
    61c5:	48 8b 4d f0          	mov    -0x10(%rbp),%rcx
    61c9:	48 8b 79 48          	mov    0x48(%rcx),%rdi
    61cd:	48 8d 35 dd 1f 01 00 	lea    0x11fdd(%rip),%rsi        # 181b1 <_IO_stdin_used+0x1b1>
    61d4:	ff d0                	call   *%rax
    61d6:	48 8b bd b8 fe ff ff 	mov    -0x148(%rbp),%rdi
    61dd:	48 89 c1             	mov    %rax,%rcx
    61e0:	48 8b 85 c0 fe ff ff 	mov    -0x140(%rbp),%rax
    61e7:	48 89 8d 10 ff ff ff 	mov    %rcx,-0xf0(%rbp)
    61ee:	89 95 18 ff ff ff    	mov    %edx,-0xe8(%rbp)
    61f4:	48 8b b5 10 ff ff ff 	mov    -0xf0(%rbp),%rsi
    61fb:	8b 95 18 ff ff ff    	mov    -0xe8(%rbp),%edx
    6201:	ff d0                	call   *%rax
    6203:	48 89 85 20 ff ff ff 	mov    %rax,-0xe0(%rbp)
    620a:	89 95 28 ff ff ff    	mov    %edx,-0xd8(%rbp)
    6210:	48 8b 85 20 ff ff ff 	mov    -0xe0(%rbp),%rax
    6217:	48 89 85 50 ff ff ff 	mov    %rax,-0xb0(%rbp)
    621e:	48 8b 85 28 ff ff ff 	mov    -0xd8(%rbp),%rax
    6225:	48 89 85 58 ff ff ff 	mov    %rax,-0xa8(%rbp)
    622c:	83 bd 58 ff ff ff 00 	cmpl   $0x0,-0xa8(%rbp)
    6233:	0f 84 6f 00 00 00    	je     62a8 <_dowhile+0x5e8>
    6239:	48 8b 85 50 ff ff ff 	mov    -0xb0(%rbp),%rax
    6240:	48 89 85 08 ff ff ff 	mov    %rax,-0xf8(%rbp)
    6247:	48 8b 85 08 ff ff ff 	mov    -0xf8(%rbp),%rax
    624e:	48 89 85 00 ff ff ff 	mov    %rax,-0x100(%rbp)
    6255:	48 83 bd 00 ff ff ff 	cmpq   $0x0,-0x100(%rbp)
    625c:	00 
    625d:	0f 84 40 00 00 00    	je     62a3 <_dowhile+0x5e3>
    6263:	48 63 45 8c          	movslq -0x74(%rbp),%rax
    6267:	48 8b 8d 00 ff ff ff 	mov    -0x100(%rbp),%rcx
    626e:	48 2b 41 08          	sub    0x8(%rcx),%rax
    6272:	66 89 c2             	mov    %ax,%dx
    6275:	48 8b 45 90          	mov    -0x70(%rbp),%rax
    6279:	48 8b 40 38          	mov    0x38(%rax),%rax
    627d:	48 8b 8d 00 ff ff ff 	mov    -0x100(%rbp),%rcx
    6284:	48 8b 49 08          	mov    0x8(%rcx),%rcx
    6288:	66 89 54 88 02       	mov    %dx,0x2(%rax,%rcx,4)
    628d:	48 8b 85 00 ff ff ff 	mov    -0x100(%rbp),%rax
    6294:	48 8b 00             	mov    (%rax),%rax
    6297:	48 89 85 00 ff ff ff 	mov    %rax,-0x100(%rbp)
    629e:	e9 b2 ff ff ff       	jmp    6255 <_dowhile+0x595>
    62a3:	e9 00 00 00 00       	jmp    62a8 <_dowhile+0x5e8>
    62a8:	8b 75 ec             	mov    -0x14(%rbp),%esi
    62ab:	bf 01 00 00 00       	mov    $0x1,%edi
    62b0:	e8 5b 28 00 00       	call   8b10 <slip_Return>
    62b5:	48 89 45 f8          	mov    %rax,-0x8(%rbp)
    62b9:	48 8b 45 f8          	mov    -0x8(%rbp),%rax
    62bd:	48 81 c4 50 01 00 00 	add    $0x150,%rsp
    62c4:	5d                   	pop    %rbp
    62c5:	c3                   	ret
    62c6:	66 2e 0f 1f 84 00 00 	cs nopw 0x0(%rax,%rax,1)
    62cd:	00 00 00 

00000000000062d0 <_break>:
    62d0:	55                   	push   %rbp
    62d1:	48 89 e5             	mov    %rsp,%rbp
    62d4:	48 81 ec 90 00 00 00 	sub    $0x90,%rsp
    62db:	48 89 7d f0          	mov    %rdi,-0x10(%rbp)
    62df:	89 75 ec             	mov    %esi,-0x14(%rbp)
    62e2:	48 8d 05 2b a1 01 00 	lea    0x1a12b(%rip),%rax        # 20414 <slip_debug_compile>
    62e9:	f6 00 01             	testb  $0x1,(%rax)
    62ec:	0f 84 0e 00 00 00    	je     6300 <_break+0x30>
    62f2:	48 8d 3d dd 21 01 00 	lea    0x121dd(%rip),%rdi        # 184d6 <_IO_stdin_used+0x4d6>
    62f9:	b0 00                	mov    $0x0,%al
    62fb:	e8 d0 cd ff ff       	call   30d0 <printf@plt>
    6300:	e9 00 00 00 00       	jmp    6305 <_break+0x35>
    6305:	48 8b 7d f0          	mov    -0x10(%rbp),%rdi
    6309:	be ff ff ff ff       	mov    $0xffffffff,%esi
    630e:	e8 dd 51 00 00       	call   b4f0 <slipC_getFunc>
    6313:	48 89 45 e0          	mov    %rax,-0x20(%rbp)
    6317:	48 8b 45 e0          	mov    -0x20(%rbp),%rax
    631b:	48 89 45 80          	mov    %rax,-0x80(%rbp)
    631f:	31 ff                	xor    %edi,%edi
    6321:	e8 aa 2b 00 00       	call   8ed0 <slipI_jmp>
    6326:	48 8b 7d 80          	mov    -0x80(%rbp),%rdi
    632a:	89 45 d8             	mov    %eax,-0x28(%rbp)
    632d:	8b 75 d8             	mov    -0x28(%rbp),%esi
    6330:	e8 eb 5e 00 00       	call   c220 <slipP_addInstruction>
    6335:	89 45 dc             	mov    %eax,-0x24(%rbp)
    6338:	48 8b 7d f0          	mov    -0x10(%rbp),%rdi
    633c:	be ff ff ff ff       	mov    $0xffffffff,%esi
    6341:	e8 4a 52 00 00       	call   b590 <slipC_getLoop>
    6346:	48 89 45 d0          	mov    %rax,-0x30(%rbp)
    634a:	48 83 7d d0 00       	cmpq   $0x0,-0x30(%rbp)
    634f:	0f 84 d3 00 00 00    	je     6428 <_break+0x158>
    6355:	48 8b 45 d0          	mov    -0x30(%rbp),%rax
    6359:	48 89 45 c8          	mov    %rax,-0x38(%rbp)
    635d:	48 8b 45 f0          	mov    -0x10(%rbp),%rax
    6361:	48 8b 78 48          	mov    0x48(%rax),%rdi
    6365:	e8 b6 6a 00 00       	call   ce20 <slipD_str>
    636a:	48 8b 40 10          	mov    0x10(%rax),%rax
    636e:	48 8b 4d f0          	mov    -0x10(%rbp),%rcx
    6372:	48 8b 79 48          	mov    0x48(%rcx),%rdi
    6376:	48 8d 35 2e 1e 01 00 	lea    0x11e2e(%rip),%rsi        # 181ab <_IO_stdin_used+0x1ab>
    637d:	ff d0                	call   *%rax
    637f:	48 89 45 b8          	mov    %rax,-0x48(%rbp)
    6383:	89 55 c0             	mov    %edx,-0x40(%rbp)
    6386:	48 8b 7d c8          	mov    -0x38(%rbp),%rdi
    638a:	e8 11 46 00 00       	call   a9a0 <slipM_getMeta>
    638f:	48 8b 40 28          	mov    0x28(%rax),%rax
    6393:	48 8b 7d c8          	mov    -0x38(%rbp),%rdi
    6397:	48 8b 75 b8          	mov    -0x48(%rbp),%rsi
    639b:	8b 55 c0             	mov    -0x40(%rbp),%edx
    639e:	ff d0                	call   *%rax
    63a0:	48 89 45 a8          	mov    %rax,-0x58(%rbp)
    63a4:	89 55 b0             	mov    %edx,-0x50(%rbp)
    63a7:	83 7d b0 00          	cmpl   $0x0,-0x50(%rbp)
    63ab:	0f 85 44 00 00 00    	jne    63f5 <_break+0x125>
    63b1:	48 8b 7d f0          	mov    -0x10(%rbp),%rdi
    63b5:	8b 75 dc             	mov    -0x24(%rbp),%esi
    63b8:	e8 23 53 00 00       	call   b6e0 <slipL_create_IntNode>
    63bd:	48 89 45 a0          	mov    %rax,-0x60(%rbp)
    63c1:	48 8b 75 a0          	mov    -0x60(%rbp),%rsi
    63c5:	48 8d 7d 90          	lea    -0x70(%rbp),%rdi
    63c9:	e8 d2 7d 00 00       	call   e1a0 <slipV_setValueList>
    63ce:	48 8b 7d c8          	mov    -0x38(%rbp),%rdi
    63d2:	e8 c9 45 00 00       	call   a9a0 <slipM_getMeta>
    63d7:	48 8b 40 20          	mov    0x20(%rax),%rax
    63db:	48 8b 7d c8          	mov    -0x38(%rbp),%rdi
    63df:	48 8b 75 b8          	mov    -0x48(%rbp),%rsi
    63e3:	8b 55 c0             	mov    -0x40(%rbp),%edx
    63e6:	48 8b 4d 90          	mov    -0x70(%rbp),%rcx
    63ea:	44 8b 45 98          	mov    -0x68(%rbp),%r8d
    63ee:	ff d0                	call   *%rax
    63f0:	e9 2e 00 00 00       	jmp    6423 <_break+0x153>
    63f5:	48 8b 45 a8          	mov    -0x58(%rbp),%rax
    63f9:	48 89 45 88          	mov    %rax,-0x78(%rbp)
    63fd:	48 8b 45 88          	mov    -0x78(%rbp),%rax
    6401:	48 89 85 78 ff ff ff 	mov    %rax,-0x88(%rbp)
    6408:	48 8b 7d f0          	mov    -0x10(%rbp),%rdi
    640c:	8b 75 dc             	mov    -0x24(%rbp),%esi
    640f:	e8 cc 52 00 00       	call   b6e0 <slipL_create_IntNode>
    6414:	48 8b bd 78 ff ff ff 	mov    -0x88(%rbp),%rdi
    641b:	48 89 c6             	mov    %rax,%rsi
    641e:	e8 ed 56 00 00       	call   bb10 <slipL_concat>
    6423:	e9 00 00 00 00       	jmp    6428 <_break+0x158>
    6428:	31 f6                	xor    %esi,%esi
    642a:	89 f7                	mov    %esi,%edi
    642c:	e8 df 26 00 00       	call   8b10 <slip_Return>
    6431:	48 89 45 f8          	mov    %rax,-0x8(%rbp)
    6435:	48 8b 45 f8          	mov    -0x8(%rbp),%rax
    6439:	48 81 c4 90 00 00 00 	add    $0x90,%rsp
    6440:	5d                   	pop    %rbp
    6441:	c3                   	ret
    6442:	66 2e 0f 1f 84 00 00 	cs nopw 0x0(%rax,%rax,1)
    6449:	00 00 00 
    644c:	0f 1f 40 00          	nopl   0x0(%rax)

0000000000006450 <_continue>:
    6450:	55                   	push   %rbp
    6451:	48 89 e5             	mov    %rsp,%rbp
    6454:	48 81 ec 90 00 00 00 	sub    $0x90,%rsp
    645b:	48 89 7d f0          	mov    %rdi,-0x10(%rbp)
    645f:	89 75 ec             	mov    %esi,-0x14(%rbp)
    6462:	48 8d 05 ab 9f 01 00 	lea    0x19fab(%rip),%rax        # 20414 <slip_debug_compile>
    6469:	f6 00 01             	testb  $0x1,(%rax)
    646c:	0f 84 0e 00 00 00    	je     6480 <_continue+0x30>
    6472:	48 8d 3d 6b 20 01 00 	lea    0x1206b(%rip),%rdi        # 184e4 <_IO_stdin_used+0x4e4>
    6479:	b0 00                	mov    $0x0,%al
    647b:	e8 50 cc ff ff       	call   30d0 <printf@plt>
    6480:	e9 00 00 00 00       	jmp    6485 <_continue+0x35>
    6485:	48 8b 7d f0          	mov    -0x10(%rbp),%rdi
    6489:	be ff ff ff ff       	mov    $0xffffffff,%esi
    648e:	e8 5d 50 00 00       	call   b4f0 <slipC_getFunc>
    6493:	48 89 45 e0          	mov    %rax,-0x20(%rbp)
    6497:	48 8b 45 e0          	mov    -0x20(%rbp),%rax
    649b:	48 89 45 80          	mov    %rax,-0x80(%rbp)
    649f:	31 ff                	xor    %edi,%edi
    64a1:	e8 2a 2a 00 00       	call   8ed0 <slipI_jmp>
    64a6:	48 8b 7d 80          	mov    -0x80(%rbp),%rdi
    64aa:	89 45 d8             	mov    %eax,-0x28(%rbp)
    64ad:	8b 75 d8             	mov    -0x28(%rbp),%esi
    64b0:	e8 6b 5d 00 00       	call   c220 <slipP_addInstruction>
    64b5:	89 45 dc             	mov    %eax,-0x24(%rbp)
    64b8:	48 8b 7d f0          	mov    -0x10(%rbp),%rdi
    64bc:	be ff ff ff ff       	mov    $0xffffffff,%esi
    64c1:	e8 ca 50 00 00       	call   b590 <slipC_getLoop>
    64c6:	48 89 45 d0          	mov    %rax,-0x30(%rbp)
    64ca:	48 83 7d d0 00       	cmpq   $0x0,-0x30(%rbp)
    64cf:	0f 84 d3 00 00 00    	je     65a8 <_continue+0x158>
    64d5:	48 8b 45 d0          	mov    -0x30(%rbp),%rax
    64d9:	48 89 45 c8          	mov    %rax,-0x38(%rbp)
    64dd:	48 8b 45 f0          	mov    -0x10(%rbp),%rax
    64e1:	48 8b 78 48          	mov    0x48(%rax),%rdi
    64e5:	e8 36 69 00 00       	call   ce20 <slipD_str>
    64ea:	48 8b 40 10          	mov    0x10(%rax),%rax
    64ee:	48 8b 4d f0          	mov    -0x10(%rbp),%rcx
    64f2:	48 8b 79 48          	mov    0x48(%rcx),%rdi
    64f6:	48 8d 35 b4 1c 01 00 	lea    0x11cb4(%rip),%rsi        # 181b1 <_IO_stdin_used+0x1b1>
    64fd:	ff d0                	call   *%rax
    64ff:	48 89 45 b8          	mov    %rax,-0x48(%rbp)
    6503:	89 55 c0             	mov    %edx,-0x40(%rbp)
    6506:	48 8b 7d c8          	mov    -0x38(%rbp),%rdi
    650a:	e8 91 44 00 00       	call   a9a0 <slipM_getMeta>
    650f:	48 8b 40 28          	mov    0x28(%rax),%rax
    6513:	48 8b 7d c8          	mov    -0x38(%rbp),%rdi
    6517:	48 8b 75 b8          	mov    -0x48(%rbp),%rsi
    651b:	8b 55 c0             	mov    -0x40(%rbp),%edx
    651e:	ff d0                	call   *%rax
    6520:	48 89 45 a8          	mov    %rax,-0x58(%rbp)
    6524:	89 55 b0             	mov    %edx,-0x50(%rbp)
    6527:	83 7d b0 00          	cmpl   $0x0,-0x50(%rbp)
    652b:	0f 85 44 00 00 00    	jne    6575 <_continue+0x125>
    6531:	48 8b 7d f0          	mov    -0x10(%rbp),%rdi
    6535:	8b 75 dc             	mov    -0x24(%rbp),%esi
    6538:	e8 a3 51 00 00       	call   b6e0 <slipL_create_IntNode>
    653d:	48 89 45 a0          	mov    %rax,-0x60(%rbp)
    6541:	48 8b 75 a0          	mov    -0x60(%rbp),%rsi
    6545:	48 8d 7d 90          	lea    -0x70(%rbp),%rdi
    6549:	e8 52 7c 00 00       	call   e1a0 <slipV_setValueList>
    654e:	48 8b 7d c8          	mov    -0x38(%rbp),%rdi
    6552:	e8 49 44 00 00       	call   a9a0 <slipM_getMeta>
    6557:	48 8b 40 20          	mov    0x20(%rax),%rax
    655b:	48 8b 7d c8          	mov    -0x38(%rbp),%rdi
    655f:	48 8b 75 b8          	mov    -0x48(%rbp),%rsi
    6563:	8b 55 c0             	mov    -0x40(%rbp),%edx
    6566:	48 8b 4d 90          	mov    -0x70(%rbp),%rcx
    656a:	44 8b 45 98          	mov    -0x68(%rbp),%r8d
    656e:	ff d0                	call   *%rax
    6570:	e9 2e 00 00 00       	jmp    65a3 <_continue+0x153>
    6575:	48 8b 45 a8          	mov    -0x58(%rbp),%rax
    6579:	48 89 45 88          	mov    %rax,-0x78(%rbp)
    657d:	48 8b 45 88          	mov    -0x78(%rbp),%rax
    6581:	48 89 85 78 ff ff ff 	mov    %rax,-0x88(%rbp)
    6588:	48 8b 7d f0          	mov    -0x10(%rbp),%rdi
    658c:	8b 75 dc             	mov    -0x24(%rbp),%esi
    658f:	e8 4c 51 00 00       	call   b6e0 <slipL_create_IntNode>
    6594:	48 8b bd 78 ff ff ff 	mov    -0x88(%rbp),%rdi
    659b:	48 89 c6             	mov    %rax,%rsi
    659e:	e8 6d 55 00 00       	call   bb10 <slipL_concat>
    65a3:	e9 00 00 00 00       	jmp    65a8 <_continue+0x158>
    65a8:	31 f6                	xor    %esi,%esi
    65aa:	89 f7                	mov    %esi,%edi
    65ac:	e8 5f 25 00 00       	call   8b10 <slip_Return>
    65b1:	48 89 45 f8          	mov    %rax,-0x8(%rbp)
    65b5:	48 8b 45 f8          	mov    -0x8(%rbp),%rax
    65b9:	48 81 c4 90 00 00 00 	add    $0x90,%rsp
    65c0:	5d                   	pop    %rbp
    65c1:	c3                   	ret
    65c2:	66 2e 0f 1f 84 00 00 	cs nopw 0x0(%rax,%rax,1)
    65c9:	00 00 00 
    65cc:	0f 1f 40 00          	nopl   0x0(%rax)

00000000000065d0 <_yield>:
    65d0:	55                   	push   %rbp
    65d1:	48 89 e5             	mov    %rsp,%rbp
    65d4:	48 83 ec 20          	sub    $0x20,%rsp
    65d8:	48 89 7d f0          	mov    %rdi,-0x10(%rbp)
    65dc:	89 75 ec             	mov    %esi,-0x14(%rbp)
    65df:	48 8b 7d f0          	mov    -0x10(%rbp),%rdi
    65e3:	48 83 c7 08          	add    $0x8,%rdi
    65e7:	8b 75 ec             	mov    -0x14(%rbp),%esi
    65ea:	e8 81 74 00 00       	call   da70 <slipS_popValueNum>
    65ef:	8b 75 ec             	mov    -0x14(%rbp),%esi
    65f2:	bf 01 00 00 00       	mov    $0x1,%edi
    65f7:	e8 14 25 00 00       	call   8b10 <slip_Return>
    65fc:	48 89 45 f8          	mov    %rax,-0x8(%rbp)
    6600:	48 8b 45 f8          	mov    -0x8(%rbp),%rax
    6604:	48 83 c4 20          	add    $0x20,%rsp
    6608:	5d                   	pop    %rbp
    6609:	c3                   	ret
    660a:	66 0f 1f 44 00 00    	nopw   0x0(%rax,%rax,1)

0000000000006610 <_index>:
    6610:	55                   	push   %rbp
    6611:	48 89 e5             	mov    %rsp,%rbp
    6614:	48 83 ec 20          	sub    $0x20,%rsp
    6618:	48 89 7d f0          	mov    %rdi,-0x10(%rbp)
    661c:	89 75 ec             	mov    %esi,-0x14(%rbp)
    661f:	48 8b 7d f0          	mov    -0x10(%rbp),%rdi
    6623:	48 83 c7 08          	add    $0x8,%rdi
    6627:	8b 75 ec             	mov    -0x14(%rbp),%esi
    662a:	e8 41 74 00 00       	call   da70 <slipS_popValueNum>
    662f:	8b 75 ec             	mov    -0x14(%rbp),%esi
    6632:	bf 01 00 00 00       	mov    $0x1,%edi
    6637:	e8 d4 24 00 00       	call   8b10 <slip_Return>
    663c:	48 89 45 f8          	mov    %rax,-0x8(%rbp)
    6640:	48 8b 45 f8          	mov    -0x8(%rbp),%rax
    6644:	48 83 c4 20          	add    $0x20,%rsp
    6648:	5d                   	pop    %rbp
    6649:	c3                   	ret
    664a:	66 0f 1f 44 00 00    	nopw   0x0(%rax,%rax,1)

0000000000006650 <_dot>:
    6650:	55                   	push   %rbp
    6651:	48 89 e5             	mov    %rsp,%rbp
    6654:	48 81 ec 80 00 00 00 	sub    $0x80,%rsp
    665b:	48 89 7d f0          	mov    %rdi,-0x10(%rbp)
    665f:	89 75 ec             	mov    %esi,-0x14(%rbp)
    6662:	83 7d ec 01          	cmpl   $0x1,-0x14(%rbp)
    6666:	0f 8c 05 00 00 00    	jl     6671 <_dot+0x21>
    666c:	e9 1f 00 00 00       	jmp    6690 <_dot+0x40>
    6671:	48 8d 3d 6e 1b 01 00 	lea    0x11b6e(%rip),%rdi        # 181e6 <_IO_stdin_used+0x1e6>
    6678:	48 8d 35 70 1b 01 00 	lea    0x11b70(%rip),%rsi        # 181ef <_IO_stdin_used+0x1ef>
    667f:	ba b6 00 00 00       	mov    $0xb6,%edx
    6684:	48 8d 0d 6a 1e 01 00 	lea    0x11e6a(%rip),%rcx        # 184f5 <_IO_stdin_used+0x4f5>
    668b:	e8 60 ca ff ff       	call   30f0 <__assert_fail@plt>
    6690:	c7 45 e8 01 00 00 00 	movl   $0x1,-0x18(%rbp)
    6697:	48 8b 7d f0          	mov    -0x10(%rbp),%rdi
    669b:	31 f6                	xor    %esi,%esi
    669d:	2b 75 ec             	sub    -0x14(%rbp),%esi
    66a0:	e8 1b 88 00 00       	call   eec0 <slipV_getValue>
    66a5:	48 89 45 d8          	mov    %rax,-0x28(%rbp)
    66a9:	89 55 e0             	mov    %edx,-0x20(%rbp)
    66ac:	48 8b 7d f0          	mov    -0x10(%rbp),%rdi
    66b0:	48 83 c7 08          	add    $0x8,%rdi
    66b4:	8b 75 ec             	mov    -0x14(%rbp),%esi
    66b7:	e8 b4 73 00 00       	call   da70 <slipS_popValueNum>
    66bc:	48 8b 45 d8          	mov    -0x28(%rbp),%rax
    66c0:	48 89 45 d0          	mov    %rax,-0x30(%rbp)
    66c4:	48 8b 45 d0          	mov    -0x30(%rbp),%rax
    66c8:	48 89 45 c8          	mov    %rax,-0x38(%rbp)
    66cc:	48 8b 45 c8          	mov    -0x38(%rbp),%rax
    66d0:	48 8b 48 08          	mov    0x8(%rax),%rcx
    66d4:	48 89 4d b8          	mov    %rcx,-0x48(%rbp)
    66d8:	48 8b 40 10          	mov    0x10(%rax),%rax
    66dc:	48 89 45 c0          	mov    %rax,-0x40(%rbp)
    66e0:	48 8b 7d c8          	mov    -0x38(%rbp),%rdi
    66e4:	e8 67 54 00 00       	call   bb50 <slipL_forward>
    66e9:	48 89 45 c8          	mov    %rax,-0x38(%rbp)
    66ed:	48 8b 45 c8          	mov    -0x38(%rbp),%rax
    66f1:	48 8b 48 08          	mov    0x8(%rax),%rcx
    66f5:	48 89 4d a8          	mov    %rcx,-0x58(%rbp)
    66f9:	48 8b 40 10          	mov    0x10(%rax),%rax
    66fd:	48 89 45 b0          	mov    %rax,-0x50(%rbp)
    6701:	48 8b 7d c8          	mov    -0x38(%rbp),%rdi
    6705:	e8 46 54 00 00       	call   bb50 <slipL_forward>
    670a:	48 89 45 c8          	mov    %rax,-0x38(%rbp)
    670e:	48 8d 05 ff 9c 01 00 	lea    0x19cff(%rip),%rax        # 20414 <slip_debug_compile>
    6715:	f6 00 01             	testb  $0x1,(%rax)
    6718:	0f 84 0e 00 00 00    	je     672c <_dot+0xdc>
    671e:	48 8d 3d ec 1d 01 00 	lea    0x11dec(%rip),%rdi        # 18511 <_IO_stdin_used+0x511>
    6725:	b0 00                	mov    $0x0,%al
    6727:	e8 a4 c9 ff ff       	call   30d0 <printf@plt>
    672c:	e9 00 00 00 00       	jmp    6731 <_dot+0xe1>
    6731:	48 8b 7d f0          	mov    -0x10(%rbp),%rdi
    6735:	be ff ff ff ff       	mov    $0xffffffff,%esi
    673a:	e8 b1 4d 00 00       	call   b4f0 <slipC_getFunc>
    673f:	48 89 45 a0          	mov    %rax,-0x60(%rbp)
    6743:	c7 45 9c 00 00 00 00 	movl   $0x0,-0x64(%rbp)
    674a:	48 8b 7d f0          	mov    -0x10(%rbp),%rdi
    674e:	48 8b 75 a0          	mov    -0x60(%rbp),%rsi
    6752:	48 8b 55 b8          	mov    -0x48(%rbp),%rdx
    6756:	8b 4d c0             	mov    -0x40(%rbp),%ecx
    6759:	4c 8d 45 9c          	lea    -0x64(%rbp),%r8
    675d:	e8 1e 1e 00 00       	call   8580 <load>
    6762:	89 45 98             	mov    %eax,-0x68(%rbp)
    6765:	48 8b 7d f0          	mov    -0x10(%rbp),%rdi
    6769:	48 8b 75 a0          	mov    -0x60(%rbp),%rsi
    676d:	48 8b 55 a8          	mov    -0x58(%rbp),%rdx
    6771:	8b 4d b0             	mov    -0x50(%rbp),%ecx
    6774:	4c 8d 45 9c          	lea    -0x64(%rbp),%r8
    6778:	e8 03 1e 00 00       	call   8580 <load>
    677d:	89 45 94             	mov    %eax,-0x6c(%rbp)
    6780:	48 8b 7d a0          	mov    -0x60(%rbp),%rdi
    6784:	8b 75 9c             	mov    -0x64(%rbp),%esi
    6787:	e8 54 5e 00 00       	call   c5e0 <slipP_popLocalVar>
    678c:	48 8b 7d a0          	mov    -0x60(%rbp),%rdi
    6790:	be 01 00 00 00       	mov    $0x1,%esi
    6795:	e8 16 5e 00 00       	call   c5b0 <slipP_addLocalVar>
    679a:	89 45 90             	mov    %eax,-0x70(%rbp)
    679d:	48 8b 45 a0          	mov    -0x60(%rbp),%rax
    67a1:	48 89 45 80          	mov    %rax,-0x80(%rbp)
    67a5:	8b 45 90             	mov    -0x70(%rbp),%eax
    67a8:	66 89 c2             	mov    %ax,%dx
    67ab:	8b 45 98             	mov    -0x68(%rbp),%eax
    67ae:	88 c1                	mov    %al,%cl
    67b0:	8b 45 94             	mov    -0x6c(%rbp),%eax
    67b3:	0f b7 fa             	movzwl %dx,%edi
    67b6:	0f b6 f1             	movzbl %cl,%esi
    67b9:	0f b6 d0             	movzbl %al,%edx
    67bc:	e8 bf 23 00 00       	call   8b80 <slipI_getTable>
    67c1:	48 8b 7d 80          	mov    -0x80(%rbp),%rdi
    67c5:	89 45 88             	mov    %eax,-0x78(%rbp)
    67c8:	8b 75 88             	mov    -0x78(%rbp),%esi
    67cb:	e8 50 5a 00 00       	call   c220 <slipP_addInstruction>
    67d0:	48 8b 7d f0          	mov    -0x10(%rbp),%rdi
    67d4:	8b 75 90             	mov    -0x70(%rbp),%esi
    67d7:	e8 04 8a 00 00       	call   f1e0 <slipV_pushExpr>
    67dc:	bf 01 00 00 00       	mov    $0x1,%edi
    67e1:	be 02 00 00 00       	mov    $0x2,%esi
    67e6:	e8 25 23 00 00       	call   8b10 <slip_Return>
    67eb:	48 89 45 f8          	mov    %rax,-0x8(%rbp)
    67ef:	48 8b 45 f8          	mov    -0x8(%rbp),%rax
    67f3:	48 81 c4 80 00 00 00 	add    $0x80,%rsp
    67fa:	5d                   	pop    %rbp
    67fb:	c3                   	ret
    67fc:	0f 1f 40 00          	nopl   0x0(%rax)

0000000000006800 <_add>:
    6800:	55                   	push   %rbp
    6801:	48 89 e5             	mov    %rsp,%rbp
    6804:	48 81 ec 80 00 00 00 	sub    $0x80,%rsp
    680b:	48 89 7d f0          	mov    %rdi,-0x10(%rbp)
    680f:	89 75 ec             	mov    %esi,-0x14(%rbp)
    6812:	83 7d ec 01          	cmpl   $0x1,-0x14(%rbp)
    6816:	0f 8c 05 00 00 00    	jl     6821 <_add+0x21>
    681c:	e9 1f 00 00 00       	jmp    6840 <_add+0x40>
    6821:	48 8d 3d be 19 01 00 	lea    0x119be(%rip),%rdi        # 181e6 <_IO_stdin_used+0x1e6>
    6828:	48 8d 35 c0 19 01 00 	lea    0x119c0(%rip),%rsi        # 181ef <_IO_stdin_used+0x1ef>
    682f:	ba a6 00 00 00       	mov    $0xa6,%edx
    6834:	48 8d 0d e2 1c 01 00 	lea    0x11ce2(%rip),%rcx        # 1851d <_IO_stdin_used+0x51d>
    683b:	e8 b0 c8 ff ff       	call   30f0 <__assert_fail@plt>
    6840:	c7 45 e8 01 00 00 00 	movl   $0x1,-0x18(%rbp)
    6847:	48 8b 7d f0          	mov    -0x10(%rbp),%rdi
    684b:	31 f6                	xor    %esi,%esi
    684d:	2b 75 ec             	sub    -0x14(%rbp),%esi
    6850:	e8 6b 86 00 00       	call   eec0 <slipV_getValue>
    6855:	48 89 45 d8          	mov    %rax,-0x28(%rbp)
    6859:	89 55 e0             	mov    %edx,-0x20(%rbp)
    685c:	48 8b 7d f0          	mov    -0x10(%rbp),%rdi
    6860:	48 83 c7 08          	add    $0x8,%rdi
    6864:	8b 75 ec             	mov    -0x14(%rbp),%esi
    6867:	e8 04 72 00 00       	call   da70 <slipS_popValueNum>
    686c:	48 8b 45 d8          	mov    -0x28(%rbp),%rax
    6870:	48 89 45 d0          	mov    %rax,-0x30(%rbp)
    6874:	48 8b 45 d0          	mov    -0x30(%rbp),%rax
    6878:	48 89 45 c8          	mov    %rax,-0x38(%rbp)
    687c:	48 8b 45 c8          	mov    -0x38(%rbp),%rax
    6880:	48 8b 48 08          	mov    0x8(%rax),%rcx
    6884:	48 89 4d b8          	mov    %rcx,-0x48(%rbp)
    6888:	48 8b 40 10          	mov    0x10(%rax),%rax
    688c:	48 89 45 c0          	mov    %rax,-0x40(%rbp)
    6890:	48 8b 7d c8          	mov    -0x38(%rbp),%rdi
    6894:	e8 b7 52 00 00       	call   bb50 <slipL_forward>
    6899:	48 89 45 c8          	mov    %rax,-0x38(%rbp)
    689d:	48 8b 45 c8          	mov    -0x38(%rbp),%rax
    68a1:	48 8b 48 08          	mov    0x8(%rax),%rcx
    68a5:	48 89 4d a8          	mov    %rcx,-0x58(%rbp)
    68a9:	48 8b 40 10          	mov    0x10(%rax),%rax
    68ad:	48 89 45 b0          	mov    %rax,-0x50(%rbp)
    68b1:	48 8b 7d c8          	mov    -0x38(%rbp),%rdi
    68b5:	e8 96 52 00 00       	call   bb50 <slipL_forward>
    68ba:	48 89 45 c8          	mov    %rax,-0x38(%rbp)
    68be:	48 8d 05 4f 9b 01 00 	lea    0x19b4f(%rip),%rax        # 20414 <slip_debug_compile>
    68c5:	f6 00 01             	testb  $0x1,(%rax)
    68c8:	0f 84 15 00 00 00    	je     68e3 <_add+0xe3>
    68ce:	48 8d 3d 64 1c 01 00 	lea    0x11c64(%rip),%rdi        # 18539 <_IO_stdin_used+0x539>
    68d5:	48 8d 35 67 1c 01 00 	lea    0x11c67(%rip),%rsi        # 18543 <_IO_stdin_used+0x543>
    68dc:	b0 00                	mov    $0x0,%al
    68de:	e8 ed c7 ff ff       	call   30d0 <printf@plt>
    68e3:	e9 00 00 00 00       	jmp    68e8 <_add+0xe8>
    68e8:	48 8b 7d f0          	mov    -0x10(%rbp),%rdi
    68ec:	be ff ff ff ff       	mov    $0xffffffff,%esi
    68f1:	e8 fa 4b 00 00       	call   b4f0 <slipC_getFunc>
    68f6:	48 89 45 a0          	mov    %rax,-0x60(%rbp)
    68fa:	c7 45 9c 00 00 00 00 	movl   $0x0,-0x64(%rbp)
    6901:	48 8b 7d f0          	mov    -0x10(%rbp),%rdi
    6905:	48 8b 75 a0          	mov    -0x60(%rbp),%rsi
    6909:	48 8b 55 b8          	mov    -0x48(%rbp),%rdx
    690d:	8b 4d c0             	mov    -0x40(%rbp),%ecx
    6910:	4c 8d 45 9c          	lea    -0x64(%rbp),%r8
    6914:	e8 67 1c 00 00       	call   8580 <load>
    6919:	89 45 98             	mov    %eax,-0x68(%rbp)
    691c:	48 8b 7d f0          	mov    -0x10(%rbp),%rdi
    6920:	48 8b 75 a0          	mov    -0x60(%rbp),%rsi
    6924:	48 8b 55 a8          	mov    -0x58(%rbp),%rdx
    6928:	8b 4d b0             	mov    -0x50(%rbp),%ecx
    692b:	4c 8d 45 9c          	lea    -0x64(%rbp),%r8
    692f:	e8 4c 1c 00 00       	call   8580 <load>
    6934:	89 45 94             	mov    %eax,-0x6c(%rbp)
    6937:	48 8b 7d a0          	mov    -0x60(%rbp),%rdi
    693b:	8b 75 9c             	mov    -0x64(%rbp),%esi
    693e:	e8 9d 5c 00 00       	call   c5e0 <slipP_popLocalVar>
    6943:	48 8b 7d a0          	mov    -0x60(%rbp),%rdi
    6947:	be 01 00 00 00       	mov    $0x1,%esi
    694c:	e8 5f 5c 00 00       	call   c5b0 <slipP_addLocalVar>
    6951:	89 45 90             	mov    %eax,-0x70(%rbp)
    6954:	48 8b 45 a0          	mov    -0x60(%rbp),%rax
    6958:	48 89 45 80          	mov    %rax,-0x80(%rbp)
    695c:	8b 45 90             	mov    -0x70(%rbp),%eax
    695f:	66 89 c2             	mov    %ax,%dx
    6962:	8b 45 98             	mov    -0x68(%rbp),%eax
    6965:	88 c1                	mov    %al,%cl
    6967:	8b 45 94             	mov    -0x6c(%rbp),%eax
    696a:	0f b7 fa             	movzwl %dx,%edi
    696d:	0f b6 f1             	movzbl %cl,%esi
    6970:	0f b6 d0             	movzbl %al,%edx
    6973:	e8 d8 25 00 00       	call   8f50 <slipI_add>
    6978:	48 8b 7d 80          	mov    -0x80(%rbp),%rdi
    697c:	89 45 88             	mov    %eax,-0x78(%rbp)
    697f:	8b 75 88             	mov    -0x78(%rbp),%esi
    6982:	e8 99 58 00 00       	call   c220 <slipP_addInstruction>
    6987:	48 8b 7d f0          	mov    -0x10(%rbp),%rdi
    698b:	8b 75 90             	mov    -0x70(%rbp),%esi
    698e:	e8 4d 88 00 00       	call   f1e0 <slipV_pushExpr>
    6993:	48 8d 05 7a 9a 01 00 	lea    0x19a7a(%rip),%rax        # 20414 <slip_debug_compile>
    699a:	f6 00 01             	testb  $0x1,(%rax)
    699d:	0f 84 09 00 00 00    	je     69ac <_add+0x1ac>
    69a3:	48 8b 7d f0          	mov    -0x10(%rbp),%rdi
    69a7:	e8 14 4c 00 00       	call   b5c0 <slipC_printStack>
    69ac:	bf 01 00 00 00       	mov    $0x1,%edi
    69b1:	be 02 00 00 00       	mov    $0x2,%esi
    69b6:	e8 55 21 00 00       	call   8b10 <slip_Return>
    69bb:	48 89 45 f8          	mov    %rax,-0x8(%rbp)
    69bf:	48 8b 45 f8          	mov    -0x8(%rbp),%rax
    69c3:	48 81 c4 80 00 00 00 	add    $0x80,%rsp
    69ca:	5d                   	pop    %rbp
    69cb:	c3                   	ret
    69cc:	0f 1f 40 00          	nopl   0x0(%rax)

00000000000069d0 <_sub>:
    69d0:	55                   	push   %rbp
    69d1:	48 89 e5             	mov    %rsp,%rbp
    69d4:	48 81 ec 80 00 00 00 	sub    $0x80,%rsp
    69db:	48 89 7d f0          	mov    %rdi,-0x10(%rbp)
    69df:	89 75 ec             	mov    %esi,-0x14(%rbp)
    69e2:	83 7d ec 01          	cmpl   $0x1,-0x14(%rbp)
    69e6:	0f 8c 05 00 00 00    	jl     69f1 <_sub+0x21>
    69ec:	e9 1f 00 00 00       	jmp    6a10 <_sub+0x40>
    69f1:	48 8d 3d ee 17 01 00 	lea    0x117ee(%rip),%rdi        # 181e6 <_IO_stdin_used+0x1e6>
    69f8:	48 8d 35 f0 17 01 00 	lea    0x117f0(%rip),%rsi        # 181ef <_IO_stdin_used+0x1ef>
    69ff:	ba a7 00 00 00       	mov    $0xa7,%edx
    6a04:	48 8d 0d 3d 1b 01 00 	lea    0x11b3d(%rip),%rcx        # 18548 <_IO_stdin_used+0x548>
    6a0b:	e8 e0 c6 ff ff       	call   30f0 <__assert_fail@plt>
    6a10:	c7 45 e8 01 00 00 00 	movl   $0x1,-0x18(%rbp)
    6a17:	48 8b 7d f0          	mov    -0x10(%rbp),%rdi
    6a1b:	31 f6                	xor    %esi,%esi
    6a1d:	2b 75 ec             	sub    -0x14(%rbp),%esi
    6a20:	e8 9b 84 00 00       	call   eec0 <slipV_getValue>
    6a25:	48 89 45 d8          	mov    %rax,-0x28(%rbp)
    6a29:	89 55 e0             	mov    %edx,-0x20(%rbp)
    6a2c:	48 8b 7d f0          	mov    -0x10(%rbp),%rdi
    6a30:	48 83 c7 08          	add    $0x8,%rdi
    6a34:	8b 75 ec             	mov    -0x14(%rbp),%esi
    6a37:	e8 34 70 00 00       	call   da70 <slipS_popValueNum>
    6a3c:	48 8b 45 d8          	mov    -0x28(%rbp),%rax
    6a40:	48 89 45 d0          	mov    %rax,-0x30(%rbp)
    6a44:	48 8b 45 d0          	mov    -0x30(%rbp),%rax
    6a48:	48 89 45 c8          	mov    %rax,-0x38(%rbp)
    6a4c:	48 8b 45 c8          	mov    -0x38(%rbp),%rax
    6a50:	48 8b 48 08          	mov    0x8(%rax),%rcx
    6a54:	48 89 4d b8          	mov    %rcx,-0x48(%rbp)
    6a58:	48 8b 40 10          	mov    0x10(%rax),%rax
    6a5c:	48 89 45 c0          	mov    %rax,-0x40(%rbp)
    6a60:	48 8b 7d c8          	mov    -0x38(%rbp),%rdi
    6a64:	e8 e7 50 00 00       	call   bb50 <slipL_forward>
    6a69:	48 89 45 c8          	mov    %rax,-0x38(%rbp)
    6a6d:	48 8b 45 c8          	mov    -0x38(%rbp),%rax
    6a71:	48 8b 48 08          	mov    0x8(%rax),%rcx
    6a75:	48 89 4d a8          	mov    %rcx,-0x58(%rbp)
    6a79:	48 8b 40 10          	mov    0x10(%rax),%rax
    6a7d:	48 89 45 b0          	mov    %rax,-0x50(%rbp)
    6a81:	48 8b 7d c8          	mov    -0x38(%rbp),%rdi
    6a85:	e8 c6 50 00 00       	call   bb50 <slipL_forward>
    6a8a:	48 89 45 c8          	mov    %rax,-0x38(%rbp)
    6a8e:	48 8d 05 7f 99 01 00 	lea    0x1997f(%rip),%rax        # 20414 <slip_debug_compile>
    6a95:	f6 00 01             	testb  $0x1,(%rax)
    6a98:	0f 84 15 00 00 00    	je     6ab3 <_sub+0xe3>
    6a9e:	48 8d 3d 94 1a 01 00 	lea    0x11a94(%rip),%rdi        # 18539 <_IO_stdin_used+0x539>
    6aa5:	48 8d 35 b8 1a 01 00 	lea    0x11ab8(%rip),%rsi        # 18564 <_IO_stdin_used+0x564>
    6aac:	b0 00                	mov    $0x0,%al
    6aae:	e8 1d c6 ff ff       	call   30d0 <printf@plt>
    6ab3:	e9 00 00 00 00       	jmp    6ab8 <_sub+0xe8>
    6ab8:	48 8b 7d f0          	mov    -0x10(%rbp),%rdi
    6abc:	be ff ff ff ff       	mov    $0xffffffff,%esi
    6ac1:	e8 2a 4a 00 00       	call   b4f0 <slipC_getFunc>
    6ac6:	48 89 45 a0          	mov    %rax,-0x60(%rbp)
    6aca:	c7 45 9c 00 00 00 00 	movl   $0x0,-0x64(%rbp)
    6ad1:	48 8b 7d f0          	mov    -0x10(%rbp),%rdi
    6ad5:	48 8b 75 a0          	mov    -0x60(%rbp),%rsi
    6ad9:	48 8b 55 b8          	mov    -0x48(%rbp),%rdx
    6add:	8b 4d c0             	mov    -0x40(%rbp),%ecx
    6ae0:	4c 8d 45 9c          	lea    -0x64(%rbp),%r8
    6ae4:	e8 97 1a 00 00       	call   8580 <load>
    6ae9:	89 45 98             	mov    %eax,-0x68(%rbp)
    6aec:	48 8b 7d f0          	mov    -0x10(%rbp),%rdi
    6af0:	48 8b 75 a0          	mov    -0x60(%rbp),%rsi
    6af4:	48 8b 55 a8          	mov    -0x58(%rbp),%rdx
    6af8:	8b 4d b0             	mov    -0x50(%rbp),%ecx
    6afb:	4c 8d 45 9c          	lea    -0x64(%rbp),%r8
    6aff:	e8 7c 1a 00 00       	call   8580 <load>
    6b04:	89 45 94             	mov    %eax,-0x6c(%rbp)
    6b07:	48 8b 7d a0          	mov    -0x60(%rbp),%rdi
    6b0b:	8b 75 9c             	mov    -0x64(%rbp),%esi
    6b0e:	e8 cd 5a 00 00       	call   c5e0 <slipP_popLocalVar>
    6b13:	48 8b 7d a0          	mov    -0x60(%rbp),%rdi
    6b17:	be 01 00 00 00       	mov    $0x1,%esi
    6b1c:	e8 8f 5a 00 00       	call   c5b0 <slipP_addLocalVar>
    6b21:	89 45 90             	mov    %eax,-0x70(%rbp)
    6b24:	48 8b 45 a0          	mov    -0x60(%rbp),%rax
    6b28:	48 89 45 80          	mov    %rax,-0x80(%rbp)
    6b2c:	8b 45 90             	mov    -0x70(%rbp),%eax
    6b2f:	66 89 c2             	mov    %ax,%dx
    6b32:	8b 45 98             	mov    -0x68(%rbp),%eax
    6b35:	88 c1                	mov    %al,%cl
    6b37:	8b 45 94             	mov    -0x6c(%rbp),%eax
    6b3a:	0f b7 fa             	movzwl %dx,%edi
    6b3d:	0f b6 f1             	movzbl %cl,%esi
    6b40:	0f b6 d0             	movzbl %al,%edx
    6b43:	e8 58 24 00 00       	call   8fa0 <slipI_sub>
    6b48:	48 8b 7d 80          	mov    -0x80(%rbp),%rdi
    6b4c:	89 45 88             	mov    %eax,-0x78(%rbp)
    6b4f:	8b 75 88             	mov    -0x78(%rbp),%esi
    6b52:	e8 c9 56 00 00       	call   c220 <slipP_addInstruction>
    6b57:	48 8b 7d f0          	mov    -0x10(%rbp),%rdi
    6b5b:	8b 75 90             	mov    -0x70(%rbp),%esi
    6b5e:	e8 7d 86 00 00       	call   f1e0 <slipV_pushExpr>
    6b63:	48 8d 05 aa 98 01 00 	lea    0x198aa(%rip),%rax        # 20414 <slip_debug_compile>
    6b6a:	f6 00 01             	testb  $0x1,(%rax)
    6b6d:	0f 84 09 00 00 00    	je     6b7c <_sub+0x1ac>
    6b73:	48 8b 7d f0          	mov    -0x10(%rbp),%rdi
    6b77:	e8 44 4a 00 00       	call   b5c0 <slipC_printStack>
    6b7c:	bf 01 00 00 00       	mov    $0x1,%edi
    6b81:	be 02 00 00 00       	mov    $0x2,%esi
    6b86:	e8 85 1f 00 00       	call   8b10 <slip_Return>
    6b8b:	48 89 45 f8          	mov    %rax,-0x8(%rbp)
    6b8f:	48 8b 45 f8          	mov    -0x8(%rbp),%rax
    6b93:	48 81 c4 80 00 00 00 	add    $0x80,%rsp
    6b9a:	5d                   	pop    %rbp
    6b9b:	c3                   	ret
    6b9c:	0f 1f 40 00          	nopl   0x0(%rax)

0000000000006ba0 <_mul>:
    6ba0:	55                   	push   %rbp
    6ba1:	48 89 e5             	mov    %rsp,%rbp
    6ba4:	48 81 ec 80 00 00 00 	sub    $0x80,%rsp
    6bab:	48 89 7d f0          	mov    %rdi,-0x10(%rbp)
    6baf:	89 75 ec             	mov    %esi,-0x14(%rbp)
    6bb2:	83 7d ec 01          	cmpl   $0x1,-0x14(%rbp)
    6bb6:	0f 8c 05 00 00 00    	jl     6bc1 <_mul+0x21>
    6bbc:	e9 1f 00 00 00       	jmp    6be0 <_mul+0x40>
    6bc1:	48 8d 3d 1e 16 01 00 	lea    0x1161e(%rip),%rdi        # 181e6 <_IO_stdin_used+0x1e6>
    6bc8:	48 8d 35 20 16 01 00 	lea    0x11620(%rip),%rsi        # 181ef <_IO_stdin_used+0x1ef>
    6bcf:	ba a8 00 00 00       	mov    $0xa8,%edx
    6bd4:	48 8d 0d 8e 19 01 00 	lea    0x1198e(%rip),%rcx        # 18569 <_IO_stdin_used+0x569>
    6bdb:	e8 10 c5 ff ff       	call   30f0 <__assert_fail@plt>
    6be0:	c7 45 e8 01 00 00 00 	movl   $0x1,-0x18(%rbp)
    6be7:	48 8b 7d f0          	mov    -0x10(%rbp),%rdi
    6beb:	31 f6                	xor    %esi,%esi
    6bed:	2b 75 ec             	sub    -0x14(%rbp),%esi
    6bf0:	e8 cb 82 00 00       	call   eec0 <slipV_getValue>
    6bf5:	48 89 45 d8          	mov    %rax,-0x28(%rbp)
    6bf9:	89 55 e0             	mov    %edx,-0x20(%rbp)
    6bfc:	48 8b 7d f0          	mov    -0x10(%rbp),%rdi
    6c00:	48 83 c7 08          	add    $0x8,%rdi
    6c04:	8b 75 ec             	mov    -0x14(%rbp),%esi
    6c07:	e8 64 6e 00 00       	call   da70 <slipS_popValueNum>
    6c0c:	48 8b 45 d8          	mov    -0x28(%rbp),%rax
    6c10:	48 89 45 d0          	mov    %rax,-0x30(%rbp)
    6c14:	48 8b 45 d0          	mov    -0x30(%rbp),%rax
    6c18:	48 89 45 c8          	mov    %rax,-0x38(%rbp)
    6c1c:	48 8b 45 c8          	mov    -0x38(%rbp),%rax
    6c20:	48 8b 48 08          	mov    0x8(%rax),%rcx
    6c24:	48 89 4d b8          	mov    %rcx,-0x48(%rbp)
    6c28:	48 8b 40 10          	mov    0x10(%rax),%rax
    6c2c:	48 89 45 c0          	mov    %rax,-0x40(%rbp)
    6c30:	48 8b 7d c8          	mov    -0x38(%rbp),%rdi
    6c34:	e8 17 4f 00 00       	call   bb50 <slipL_forward>
    6c39:	48 89 45 c8          	mov    %rax,-0x38(%rbp)
    6c3d:	48 8b 45 c8          	mov    -0x38(%rbp),%rax
    6c41:	48 8b 48 08          	mov    0x8(%rax),%rcx
    6c45:	48 89 4d a8          	mov    %rcx,-0x58(%rbp)
    6c49:	48 8b 40 10          	mov    0x10(%rax),%rax
    6c4d:	48 89 45 b0          	mov    %rax,-0x50(%rbp)
    6c51:	48 8b 7d c8          	mov    -0x38(%rbp),%rdi
    6c55:	e8 f6 4e 00 00       	call   bb50 <slipL_forward>
    6c5a:	48 89 45 c8          	mov    %rax,-0x38(%rbp)
    6c5e:	48 8d 05 af 97 01 00 	lea    0x197af(%rip),%rax        # 20414 <slip_debug_compile>
    6c65:	f6 00 01             	testb  $0x1,(%rax)
    6c68:	0f 84 15 00 00 00    	je     6c83 <_mul+0xe3>
    6c6e:	48 8d 3d c4 18 01 00 	lea    0x118c4(%rip),%rdi        # 18539 <_IO_stdin_used+0x539>
    6c75:	48 8d 35 09 19 01 00 	lea    0x11909(%rip),%rsi        # 18585 <_IO_stdin_used+0x585>
    6c7c:	b0 00                	mov    $0x0,%al
    6c7e:	e8 4d c4 ff ff       	call   30d0 <printf@plt>
    6c83:	e9 00 00 00 00       	jmp    6c88 <_mul+0xe8>
    6c88:	48 8b 7d f0          	mov    -0x10(%rbp),%rdi
    6c8c:	be ff ff ff ff       	mov    $0xffffffff,%esi
    6c91:	e8 5a 48 00 00       	call   b4f0 <slipC_getFunc>
    6c96:	48 89 45 a0          	mov    %rax,-0x60(%rbp)
    6c9a:	c7 45 9c 00 00 00 00 	movl   $0x0,-0x64(%rbp)
    6ca1:	48 8b 7d f0          	mov    -0x10(%rbp),%rdi
    6ca5:	48 8b 75 a0          	mov    -0x60(%rbp),%rsi
    6ca9:	48 8b 55 b8          	mov    -0x48(%rbp),%rdx
    6cad:	8b 4d c0             	mov    -0x40(%rbp),%ecx
    6cb0:	4c 8d 45 9c          	lea    -0x64(%rbp),%r8
    6cb4:	e8 c7 18 00 00       	call   8580 <load>
    6cb9:	89 45 98             	mov    %eax,-0x68(%rbp)
    6cbc:	48 8b 7d f0          	mov    -0x10(%rbp),%rdi
    6cc0:	48 8b 75 a0          	mov    -0x60(%rbp),%rsi
    6cc4:	48 8b 55 a8          	mov    -0x58(%rbp),%rdx
    6cc8:	8b 4d b0             	mov    -0x50(%rbp),%ecx
    6ccb:	4c 8d 45 9c          	lea    -0x64(%rbp),%r8
    6ccf:	e8 ac 18 00 00       	call   8580 <load>
    6cd4:	89 45 94             	mov    %eax,-0x6c(%rbp)
    6cd7:	48 8b 7d a0          	mov    -0x60(%rbp),%rdi
    6cdb:	8b 75 9c             	mov    -0x64(%rbp),%esi
    6cde:	e8 fd 58 00 00       	call   c5e0 <slipP_popLocalVar>
    6ce3:	48 8b 7d a0          	mov    -0x60(%rbp),%rdi
    6ce7:	be 01 00 00 00       	mov    $0x1,%esi
    6cec:	e8 bf 58 00 00       	call   c5b0 <slipP_addLocalVar>
    6cf1:	89 45 90             	mov    %eax,-0x70(%rbp)
    6cf4:	48 8b 45 a0          	mov    -0x60(%rbp),%rax
    6cf8:	48 89 45 80          	mov    %rax,-0x80(%rbp)
    6cfc:	8b 45 90             	mov    -0x70(%rbp),%eax
    6cff:	66 89 c2             	mov    %ax,%dx
    6d02:	8b 45 98             	mov    -0x68(%rbp),%eax
    6d05:	88 c1                	mov    %al,%cl
    6d07:	8b 45 94             	mov    -0x6c(%rbp),%eax
    6d0a:	0f b7 fa             	movzwl %dx,%edi
    6d0d:	0f b6 f1             	movzbl %cl,%esi
    6d10:	0f b6 d0             	movzbl %al,%edx
    6d13:	e8 d8 22 00 00       	call   8ff0 <slipI_mul>
    6d18:	48 8b 7d 80          	mov    -0x80(%rbp),%rdi
    6d1c:	89 45 88             	mov    %eax,-0x78(%rbp)
    6d1f:	8b 75 88             	mov    -0x78(%rbp),%esi
    6d22:	e8 f9 54 00 00       	call   c220 <slipP_addInstruction>
    6d27:	48 8b 7d f0          	mov    -0x10(%rbp),%rdi
    6d2b:	8b 75 90             	mov    -0x70(%rbp),%esi
    6d2e:	e8 ad 84 00 00       	call   f1e0 <slipV_pushExpr>
    6d33:	48 8d 05 da 96 01 00 	lea    0x196da(%rip),%rax        # 20414 <slip_debug_compile>
    6d3a:	f6 00 01             	testb  $0x1,(%rax)
    6d3d:	0f 84 09 00 00 00    	je     6d4c <_mul+0x1ac>
    6d43:	48 8b 7d f0          	mov    -0x10(%rbp),%rdi
    6d47:	e8 74 48 00 00       	call   b5c0 <slipC_printStack>
    6d4c:	bf 01 00 00 00       	mov    $0x1,%edi
    6d51:	be 02 00 00 00       	mov    $0x2,%esi
    6d56:	e8 b5 1d 00 00       	call   8b10 <slip_Return>
    6d5b:	48 89 45 f8          	mov    %rax,-0x8(%rbp)
    6d5f:	48 8b 45 f8          	mov    -0x8(%rbp),%rax
    6d63:	48 81 c4 80 00 00 00 	add    $0x80,%rsp
    6d6a:	5d                   	pop    %rbp
    6d6b:	c3                   	ret
    6d6c:	0f 1f 40 00          	nopl   0x0(%rax)

0000000000006d70 <_div>:
    6d70:	55                   	push   %rbp
    6d71:	48 89 e5             	mov    %rsp,%rbp
    6d74:	48 81 ec 80 00 00 00 	sub    $0x80,%rsp
    6d7b:	48 89 7d f0          	mov    %rdi,-0x10(%rbp)
    6d7f:	89 75 ec             	mov    %esi,-0x14(%rbp)
    6d82:	83 7d ec 01          	cmpl   $0x1,-0x14(%rbp)
    6d86:	0f 8c 05 00 00 00    	jl     6d91 <_div+0x21>
    6d8c:	e9 1f 00 00 00       	jmp    6db0 <_div+0x40>
    6d91:	48 8d 3d 4e 14 01 00 	lea    0x1144e(%rip),%rdi        # 181e6 <_IO_stdin_used+0x1e6>
    6d98:	48 8d 35 50 14 01 00 	lea    0x11450(%rip),%rsi        # 181ef <_IO_stdin_used+0x1ef>
    6d9f:	ba a9 00 00 00       	mov    $0xa9,%edx
    6da4:	48 8d 0d df 17 01 00 	lea    0x117df(%rip),%rcx        # 1858a <_IO_stdin_used+0x58a>
    6dab:	e8 40 c3 ff ff       	call   30f0 <__assert_fail@plt>
    6db0:	c7 45 e8 01 00 00 00 	movl   $0x1,-0x18(%rbp)
    6db7:	48 8b 7d f0          	mov    -0x10(%rbp),%rdi
    6dbb:	31 f6                	xor    %esi,%esi
    6dbd:	2b 75 ec             	sub    -0x14(%rbp),%esi
    6dc0:	e8 fb 80 00 00       	call   eec0 <slipV_getValue>
    6dc5:	48 89 45 d8          	mov    %rax,-0x28(%rbp)
    6dc9:	89 55 e0             	mov    %edx,-0x20(%rbp)
    6dcc:	48 8b 7d f0          	mov    -0x10(%rbp),%rdi
    6dd0:	48 83 c7 08          	add    $0x8,%rdi
    6dd4:	8b 75 ec             	mov    -0x14(%rbp),%esi
    6dd7:	e8 94 6c 00 00       	call   da70 <slipS_popValueNum>
    6ddc:	48 8b 45 d8          	mov    -0x28(%rbp),%rax
    6de0:	48 89 45 d0          	mov    %rax,-0x30(%rbp)
    6de4:	48 8b 45 d0          	mov    -0x30(%rbp),%rax
    6de8:	48 89 45 c8          	mov    %rax,-0x38(%rbp)
    6dec:	48 8b 45 c8          	mov    -0x38(%rbp),%rax
    6df0:	48 8b 48 08          	mov    0x8(%rax),%rcx
    6df4:	48 89 4d b8          	mov    %rcx,-0x48(%rbp)
    6df8:	48 8b 40 10          	mov    0x10(%rax),%rax
    6dfc:	48 89 45 c0          	mov    %rax,-0x40(%rbp)
    6e00:	48 8b 7d c8          	mov    -0x38(%rbp),%rdi
    6e04:	e8 47 4d 00 00       	call   bb50 <slipL_forward>
    6e09:	48 89 45 c8          	mov    %rax,-0x38(%rbp)
    6e0d:	48 8b 45 c8          	mov    -0x38(%rbp),%rax
    6e11:	48 8b 48 08          	mov    0x8(%rax),%rcx
    6e15:	48 89 4d a8          	mov    %rcx,-0x58(%rbp)
    6e19:	48 8b 40 10          	mov    0x10(%rax),%rax
    6e1d:	48 89 45 b0          	mov    %rax,-0x50(%rbp)
    6e21:	48 8b 7d c8          	mov    -0x38(%rbp),%rdi
    6e25:	e8 26 4d 00 00       	call   bb50 <slipL_forward>
    6e2a:	48 89 45 c8          	mov    %rax,-0x38(%rbp)
    6e2e:	48 8d 05 df 95 01 00 	lea    0x195df(%rip),%rax        # 20414 <slip_debug_compile>
    6e35:	f6 00 01             	testb  $0x1,(%rax)
    6e38:	0f 84 15 00 00 00    	je     6e53 <_div+0xe3>
    6e3e:	48 8d 3d f4 16 01 00 	lea    0x116f4(%rip),%rdi        # 18539 <_IO_stdin_used+0x539>
    6e45:	48 8d 35 5a 17 01 00 	lea    0x1175a(%rip),%rsi        # 185a6 <_IO_stdin_used+0x5a6>
    6e4c:	b0 00                	mov    $0x0,%al
    6e4e:	e8 7d c2 ff ff       	call   30d0 <printf@plt>
    6e53:	e9 00 00 00 00       	jmp    6e58 <_div+0xe8>
    6e58:	48 8b 7d f0          	mov    -0x10(%rbp),%rdi
    6e5c:	be ff ff ff ff       	mov    $0xffffffff,%esi
    6e61:	e8 8a 46 00 00       	call   b4f0 <slipC_getFunc>
    6e66:	48 89 45 a0          	mov    %rax,-0x60(%rbp)
    6e6a:	c7 45 9c 00 00 00 00 	movl   $0x0,-0x64(%rbp)
    6e71:	48 8b 7d f0          	mov    -0x10(%rbp),%rdi
    6e75:	48 8b 75 a0          	mov    -0x60(%rbp),%rsi
    6e79:	48 8b 55 b8          	mov    -0x48(%rbp),%rdx
    6e7d:	8b 4d c0             	mov    -0x40(%rbp),%ecx
    6e80:	4c 8d 45 9c          	lea    -0x64(%rbp),%r8
    6e84:	e8 f7 16 00 00       	call   8580 <load>
    6e89:	89 45 98             	mov    %eax,-0x68(%rbp)
    6e8c:	48 8b 7d f0          	mov    -0x10(%rbp),%rdi
    6e90:	48 8b 75 a0          	mov    -0x60(%rbp),%rsi
    6e94:	48 8b 55 a8          	mov    -0x58(%rbp),%rdx
    6e98:	8b 4d b0             	mov    -0x50(%rbp),%ecx
    6e9b:	4c 8d 45 9c          	lea    -0x64(%rbp),%r8
    6e9f:	e8 dc 16 00 00       	call   8580 <load>
    6ea4:	89 45 94             	mov    %eax,-0x6c(%rbp)
    6ea7:	48 8b 7d a0          	mov    -0x60(%rbp),%rdi
    6eab:	8b 75 9c             	mov    -0x64(%rbp),%esi
    6eae:	e8 2d 57 00 00       	call   c5e0 <slipP_popLocalVar>
    6eb3:	48 8b 7d a0          	mov    -0x60(%rbp),%rdi
    6eb7:	be 01 00 00 00       	mov    $0x1,%esi
    6ebc:	e8 ef 56 00 00       	call   c5b0 <slipP_addLocalVar>
    6ec1:	89 45 90             	mov    %eax,-0x70(%rbp)
    6ec4:	48 8b 45 a0          	mov    -0x60(%rbp),%rax
    6ec8:	48 89 45 80          	mov    %rax,-0x80(%rbp)
    6ecc:	8b 45 90             	mov    -0x70(%rbp),%eax
    6ecf:	66 89 c2             	mov    %ax,%dx
    6ed2:	8b 45 98             	mov    -0x68(%rbp),%eax
    6ed5:	88 c1                	mov    %al,%cl
    6ed7:	8b 45 94             	mov    -0x6c(%rbp),%eax
    6eda:	0f b7 fa             	movzwl %dx,%edi
    6edd:	0f b6 f1             	movzbl %cl,%esi
    6ee0:	0f b6 d0             	movzbl %al,%edx
    6ee3:	e8 58 21 00 00       	call   9040 <slipI_div>
    6ee8:	48 8b 7d 80          	mov    -0x80(%rbp),%rdi
    6eec:	89 45 88             	mov    %eax,-0x78(%rbp)
    6eef:	8b 75 88             	mov    -0x78(%rbp),%esi
    6ef2:	e8 29 53 00 00       	call   c220 <slipP_addInstruction>
    6ef7:	48 8b 7d f0          	mov    -0x10(%rbp),%rdi
    6efb:	8b 75 90             	mov    -0x70(%rbp),%esi
    6efe:	e8 dd 82 00 00       	call   f1e0 <slipV_pushExpr>
    6f03:	48 8d 05 0a 95 01 00 	lea    0x1950a(%rip),%rax        # 20414 <slip_debug_compile>
    6f0a:	f6 00 01             	testb  $0x1,(%rax)
    6f0d:	0f 84 09 00 00 00    	je     6f1c <_div+0x1ac>
    6f13:	48 8b 7d f0          	mov    -0x10(%rbp),%rdi
    6f17:	e8 a4 46 00 00       	call   b5c0 <slipC_printStack>
    6f1c:	bf 01 00 00 00       	mov    $0x1,%edi
    6f21:	be 02 00 00 00       	mov    $0x2,%esi
    6f26:	e8 e5 1b 00 00       	call   8b10 <slip_Return>
    6f2b:	48 89 45 f8          	mov    %rax,-0x8(%rbp)
    6f2f:	48 8b 45 f8          	mov    -0x8(%rbp),%rax
    6f33:	48 81 c4 80 00 00 00 	add    $0x80,%rsp
    6f3a:	5d                   	pop    %rbp
    6f3b:	c3                   	ret
    6f3c:	0f 1f 40 00          	nopl   0x0(%rax)

0000000000006f40 <_idiv>:
    6f40:	55                   	push   %rbp
    6f41:	48 89 e5             	mov    %rsp,%rbp
    6f44:	48 81 ec 80 00 00 00 	sub    $0x80,%rsp
    6f4b:	48 89 7d f0          	mov    %rdi,-0x10(%rbp)
    6f4f:	89 75 ec             	mov    %esi,-0x14(%rbp)
    6f52:	83 7d ec 01          	cmpl   $0x1,-0x14(%rbp)
    6f56:	0f 8c 05 00 00 00    	jl     6f61 <_idiv+0x21>
    6f5c:	e9 1f 00 00 00       	jmp    6f80 <_idiv+0x40>
    6f61:	48 8d 3d 7e 12 01 00 	lea    0x1127e(%rip),%rdi        # 181e6 <_IO_stdin_used+0x1e6>
    6f68:	48 8d 35 80 12 01 00 	lea    0x11280(%rip),%rsi        # 181ef <_IO_stdin_used+0x1ef>
    6f6f:	ba aa 00 00 00       	mov    $0xaa,%edx
    6f74:	48 8d 0d 30 16 01 00 	lea    0x11630(%rip),%rcx        # 185ab <_IO_stdin_used+0x5ab>
    6f7b:	e8 70 c1 ff ff       	call   30f0 <__assert_fail@plt>
    6f80:	c7 45 e8 01 00 00 00 	movl   $0x1,-0x18(%rbp)
    6f87:	48 8b 7d f0          	mov    -0x10(%rbp),%rdi
    6f8b:	31 f6                	xor    %esi,%esi
    6f8d:	2b 75 ec             	sub    -0x14(%rbp),%esi
    6f90:	e8 2b 7f 00 00       	call   eec0 <slipV_getValue>
    6f95:	48 89 45 d8          	mov    %rax,-0x28(%rbp)
    6f99:	89 55 e0             	mov    %edx,-0x20(%rbp)
    6f9c:	48 8b 7d f0          	mov    -0x10(%rbp),%rdi
    6fa0:	48 83 c7 08          	add    $0x8,%rdi
    6fa4:	8b 75 ec             	mov    -0x14(%rbp),%esi
    6fa7:	e8 c4 6a 00 00       	call   da70 <slipS_popValueNum>
    6fac:	48 8b 45 d8          	mov    -0x28(%rbp),%rax
    6fb0:	48 89 45 d0          	mov    %rax,-0x30(%rbp)
    6fb4:	48 8b 45 d0          	mov    -0x30(%rbp),%rax
    6fb8:	48 89 45 c8          	mov    %rax,-0x38(%rbp)
    6fbc:	48 8b 45 c8          	mov    -0x38(%rbp),%rax
    6fc0:	48 8b 48 08          	mov    0x8(%rax),%rcx
    6fc4:	48 89 4d b8          	mov    %rcx,-0x48(%rbp)
    6fc8:	48 8b 40 10          	mov    0x10(%rax),%rax
    6fcc:	48 89 45 c0          	mov    %rax,-0x40(%rbp)
    6fd0:	48 8b 7d c8          	mov    -0x38(%rbp),%rdi
    6fd4:	e8 77 4b 00 00       	call   bb50 <slipL_forward>
    6fd9:	48 89 45 c8          	mov    %rax,-0x38(%rbp)
    6fdd:	48 8b 45 c8          	mov    -0x38(%rbp),%rax
    6fe1:	48 8b 48 08          	mov    0x8(%rax),%rcx
    6fe5:	48 89 4d a8          	mov    %rcx,-0x58(%rbp)
    6fe9:	48 8b 40 10          	mov    0x10(%rax),%rax
    6fed:	48 89 45 b0          	mov    %rax,-0x50(%rbp)
    6ff1:	48 8b 7d c8          	mov    -0x38(%rbp),%rdi
    6ff5:	e8 56 4b 00 00       	call   bb50 <slipL_forward>
    6ffa:	48 89 45 c8          	mov    %rax,-0x38(%rbp)
    6ffe:	48 8d 05 0f 94 01 00 	lea    0x1940f(%rip),%rax        # 20414 <slip_debug_compile>
    7005:	f6 00 01             	testb  $0x1,(%rax)
    7008:	0f 84 15 00 00 00    	je     7023 <_idiv+0xe3>
    700e:	48 8d 3d 24 15 01 00 	lea    0x11524(%rip),%rdi        # 18539 <_IO_stdin_used+0x539>
    7015:	48 8d 35 ac 15 01 00 	lea    0x115ac(%rip),%rsi        # 185c8 <_IO_stdin_used+0x5c8>
    701c:	b0 00                	mov    $0x0,%al
    701e:	e8 ad c0 ff ff       	call   30d0 <printf@plt>
    7023:	e9 00 00 00 00       	jmp    7028 <_idiv+0xe8>
    7028:	48 8b 7d f0          	mov    -0x10(%rbp),%rdi
    702c:	be ff ff ff ff       	mov    $0xffffffff,%esi
    7031:	e8 ba 44 00 00       	call   b4f0 <slipC_getFunc>
    7036:	48 89 45 a0          	mov    %rax,-0x60(%rbp)
    703a:	c7 45 9c 00 00 00 00 	movl   $0x0,-0x64(%rbp)
    7041:	48 8b 7d f0          	mov    -0x10(%rbp),%rdi
    7045:	48 8b 75 a0          	mov    -0x60(%rbp),%rsi
    7049:	48 8b 55 b8          	mov    -0x48(%rbp),%rdx
    704d:	8b 4d c0             	mov    -0x40(%rbp),%ecx
    7050:	4c 8d 45 9c          	lea    -0x64(%rbp),%r8
    7054:	e8 27 15 00 00       	call   8580 <load>
    7059:	89 45 98             	mov    %eax,-0x68(%rbp)
    705c:	48 8b 7d f0          	mov    -0x10(%rbp),%rdi
    7060:	48 8b 75 a0          	mov    -0x60(%rbp),%rsi
    7064:	48 8b 55 a8          	mov    -0x58(%rbp),%rdx
    7068:	8b 4d b0             	mov    -0x50(%rbp),%ecx
    706b:	4c 8d 45 9c          	lea    -0x64(%rbp),%r8
    706f:	e8 0c 15 00 00       	call   8580 <load>
    7074:	89 45 94             	mov    %eax,-0x6c(%rbp)
    7077:	48 8b 7d a0          	mov    -0x60(%rbp),%rdi
    707b:	8b 75 9c             	mov    -0x64(%rbp),%esi
    707e:	e8 5d 55 00 00       	call   c5e0 <slipP_popLocalVar>
    7083:	48 8b 7d a0          	mov    -0x60(%rbp),%rdi
    7087:	be 01 00 00 00       	mov    $0x1,%esi
    708c:	e8 1f 55 00 00       	call   c5b0 <slipP_addLocalVar>
    7091:	89 45 90             	mov    %eax,-0x70(%rbp)
    7094:	48 8b 45 a0          	mov    -0x60(%rbp),%rax
    7098:	48 89 45 80          	mov    %rax,-0x80(%rbp)
    709c:	8b 45 90             	mov    -0x70(%rbp),%eax
    709f:	66 89 c2             	mov    %ax,%dx
    70a2:	8b 45 98             	mov    -0x68(%rbp),%eax
    70a5:	88 c1                	mov    %al,%cl
    70a7:	8b 45 94             	mov    -0x6c(%rbp),%eax
    70aa:	0f b7 fa             	movzwl %dx,%edi
    70ad:	0f b6 f1             	movzbl %cl,%esi
    70b0:	0f b6 d0             	movzbl %al,%edx
    70b3:	e8 d8 1f 00 00       	call   9090 <slipI_idiv>
    70b8:	48 8b 7d 80          	mov    -0x80(%rbp),%rdi
    70bc:	89 45 88             	mov    %eax,-0x78(%rbp)
    70bf:	8b 75 88             	mov    -0x78(%rbp),%esi
    70c2:	e8 59 51 00 00       	call   c220 <slipP_addInstruction>
    70c7:	48 8b 7d f0          	mov    -0x10(%rbp),%rdi
    70cb:	8b 75 90             	mov    -0x70(%rbp),%esi
    70ce:	e8 0d 81 00 00       	call   f1e0 <slipV_pushExpr>
    70d3:	48 8d 05 3a 93 01 00 	lea    0x1933a(%rip),%rax        # 20414 <slip_debug_compile>
    70da:	f6 00 01             	testb  $0x1,(%rax)
    70dd:	0f 84 09 00 00 00    	je     70ec <_idiv+0x1ac>
    70e3:	48 8b 7d f0          	mov    -0x10(%rbp),%rdi
    70e7:	e8 d4 44 00 00       	call   b5c0 <slipC_printStack>
    70ec:	bf 01 00 00 00       	mov    $0x1,%edi
    70f1:	be 02 00 00 00       	mov    $0x2,%esi
    70f6:	e8 15 1a 00 00       	call   8b10 <slip_Return>
    70fb:	48 89 45 f8          	mov    %rax,-0x8(%rbp)
    70ff:	48 8b 45 f8          	mov    -0x8(%rbp),%rax
    7103:	48 81 c4 80 00 00 00 	add    $0x80,%rsp
    710a:	5d                   	pop    %rbp
    710b:	c3                   	ret
    710c:	0f 1f 40 00          	nopl   0x0(%rax)

0000000000007110 <_mod>:
    7110:	55                   	push   %rbp
    7111:	48 89 e5             	mov    %rsp,%rbp
    7114:	48 81 ec 80 00 00 00 	sub    $0x80,%rsp
    711b:	48 89 7d f0          	mov    %rdi,-0x10(%rbp)
    711f:	89 75 ec             	mov    %esi,-0x14(%rbp)
    7122:	83 7d ec 01          	cmpl   $0x1,-0x14(%rbp)
    7126:	0f 8c 05 00 00 00    	jl     7131 <_mod+0x21>
    712c:	e9 1f 00 00 00       	jmp    7150 <_mod+0x40>
    7131:	48 8d 3d ae 10 01 00 	lea    0x110ae(%rip),%rdi        # 181e6 <_IO_stdin_used+0x1e6>
    7138:	48 8d 35 b0 10 01 00 	lea    0x110b0(%rip),%rsi        # 181ef <_IO_stdin_used+0x1ef>
    713f:	ba ab 00 00 00       	mov    $0xab,%edx
    7144:	48 8d 0d 83 14 01 00 	lea    0x11483(%rip),%rcx        # 185ce <_IO_stdin_used+0x5ce>
    714b:	e8 a0 bf ff ff       	call   30f0 <__assert_fail@plt>
    7150:	c7 45 e8 01 00 00 00 	movl   $0x1,-0x18(%rbp)
    7157:	48 8b 7d f0          	mov    -0x10(%rbp),%rdi
    715b:	31 f6                	xor    %esi,%esi
    715d:	2b 75 ec             	sub    -0x14(%rbp),%esi
    7160:	e8 5b 7d 00 00       	call   eec0 <slipV_getValue>
    7165:	48 89 45 d8          	mov    %rax,-0x28(%rbp)
    7169:	89 55 e0             	mov    %edx,-0x20(%rbp)
    716c:	48 8b 7d f0          	mov    -0x10(%rbp),%rdi
    7170:	48 83 c7 08          	add    $0x8,%rdi
    7174:	8b 75 ec             	mov    -0x14(%rbp),%esi
    7177:	e8 f4 68 00 00       	call   da70 <slipS_popValueNum>
    717c:	48 8b 45 d8          	mov    -0x28(%rbp),%rax
    7180:	48 89 45 d0          	mov    %rax,-0x30(%rbp)
    7184:	48 8b 45 d0          	mov    -0x30(%rbp),%rax
    7188:	48 89 45 c8          	mov    %rax,-0x38(%rbp)
    718c:	48 8b 45 c8          	mov    -0x38(%rbp),%rax
    7190:	48 8b 48 08          	mov    0x8(%rax),%rcx
    7194:	48 89 4d b8          	mov    %rcx,-0x48(%rbp)
    7198:	48 8b 40 10          	mov    0x10(%rax),%rax
    719c:	48 89 45 c0          	mov    %rax,-0x40(%rbp)
    71a0:	48 8b 7d c8          	mov    -0x38(%rbp),%rdi
    71a4:	e8 a7 49 00 00       	call   bb50 <slipL_forward>
    71a9:	48 89 45 c8          	mov    %rax,-0x38(%rbp)
    71ad:	48 8b 45 c8          	mov    -0x38(%rbp),%rax
    71b1:	48 8b 48 08          	mov    0x8(%rax),%rcx
    71b5:	48 89 4d a8          	mov    %rcx,-0x58(%rbp)
    71b9:	48 8b 40 10          	mov    0x10(%rax),%rax
    71bd:	48 89 45 b0          	mov    %rax,-0x50(%rbp)
    71c1:	48 8b 7d c8          	mov    -0x38(%rbp),%rdi
    71c5:	e8 86 49 00 00       	call   bb50 <slipL_forward>
    71ca:	48 89 45 c8          	mov    %rax,-0x38(%rbp)
    71ce:	48 8d 05 3f 92 01 00 	lea    0x1923f(%rip),%rax        # 20414 <slip_debug_compile>
    71d5:	f6 00 01             	testb  $0x1,(%rax)
    71d8:	0f 84 15 00 00 00    	je     71f3 <_mod+0xe3>
    71de:	48 8d 3d 54 13 01 00 	lea    0x11354(%rip),%rdi        # 18539 <_IO_stdin_used+0x539>
    71e5:	48 8d 35 fe 13 01 00 	lea    0x113fe(%rip),%rsi        # 185ea <_IO_stdin_used+0x5ea>
    71ec:	b0 00                	mov    $0x0,%al
    71ee:	e8 dd be ff ff       	call   30d0 <printf@plt>
    71f3:	e9 00 00 00 00       	jmp    71f8 <_mod+0xe8>
    71f8:	48 8b 7d f0          	mov    -0x10(%rbp),%rdi
    71fc:	be ff ff ff ff       	mov    $0xffffffff,%esi
    7201:	e8 ea 42 00 00       	call   b4f0 <slipC_getFunc>
    7206:	48 89 45 a0          	mov    %rax,-0x60(%rbp)
    720a:	c7 45 9c 00 00 00 00 	movl   $0x0,-0x64(%rbp)
    7211:	48 8b 7d f0          	mov    -0x10(%rbp),%rdi
    7215:	48 8b 75 a0          	mov    -0x60(%rbp),%rsi
    7219:	48 8b 55 b8          	mov    -0x48(%rbp),%rdx
    721d:	8b 4d c0             	mov    -0x40(%rbp),%ecx
    7220:	4c 8d 45 9c          	lea    -0x64(%rbp),%r8
    7224:	e8 57 13 00 00       	call   8580 <load>
    7229:	89 45 98             	mov    %eax,-0x68(%rbp)
    722c:	48 8b 7d f0          	mov    -0x10(%rbp),%rdi
    7230:	48 8b 75 a0          	mov    -0x60(%rbp),%rsi
    7234:	48 8b 55 a8          	mov    -0x58(%rbp),%rdx
    7238:	8b 4d b0             	mov    -0x50(%rbp),%ecx
    723b:	4c 8d 45 9c          	lea    -0x64(%rbp),%r8
    723f:	e8 3c 13 00 00       	call   8580 <load>
    7244:	89 45 94             	mov    %eax,-0x6c(%rbp)
    7247:	48 8b 7d a0          	mov    -0x60(%rbp),%rdi
    724b:	8b 75 9c             	mov    -0x64(%rbp),%esi
    724e:	e8 8d 53 00 00       	call   c5e0 <slipP_popLocalVar>
    7253:	48 8b 7d a0          	mov    -0x60(%rbp),%rdi
    7257:	be 01 00 00 00       	mov    $0x1,%esi
    725c:	e8 4f 53 00 00       	call   c5b0 <slipP_addLocalVar>
    7261:	89 45 90             	mov    %eax,-0x70(%rbp)
    7264:	48 8b 45 a0          	mov    -0x60(%rbp),%rax
    7268:	48 89 45 80          	mov    %rax,-0x80(%rbp)
    726c:	8b 45 90             	mov    -0x70(%rbp),%eax
    726f:	66 89 c2             	mov    %ax,%dx
    7272:	8b 45 98             	mov    -0x68(%rbp),%eax
    7275:	88 c1                	mov    %al,%cl
    7277:	8b 45 94             	mov    -0x6c(%rbp),%eax
    727a:	0f b7 fa             	movzwl %dx,%edi
    727d:	0f b6 f1             	movzbl %cl,%esi
    7280:	0f b6 d0             	movzbl %al,%edx
    7283:	e8 58 1e 00 00       	call   90e0 <slipI_mod>
    7288:	48 8b 7d 80          	mov    -0x80(%rbp),%rdi
    728c:	89 45 88             	mov    %eax,-0x78(%rbp)
    728f:	8b 75 88             	mov    -0x78(%rbp),%esi
    7292:	e8 89 4f 00 00       	call   c220 <slipP_addInstruction>
    7297:	48 8b 7d f0          	mov    -0x10(%rbp),%rdi
    729b:	8b 75 90             	mov    -0x70(%rbp),%esi
    729e:	e8 3d 7f 00 00       	call   f1e0 <slipV_pushExpr>
    72a3:	48 8d 05 6a 91 01 00 	lea    0x1916a(%rip),%rax        # 20414 <slip_debug_compile>
    72aa:	f6 00 01             	testb  $0x1,(%rax)
    72ad:	0f 84 09 00 00 00    	je     72bc <_mod+0x1ac>
    72b3:	48 8b 7d f0          	mov    -0x10(%rbp),%rdi
    72b7:	e8 04 43 00 00       	call   b5c0 <slipC_printStack>
    72bc:	bf 01 00 00 00       	mov    $0x1,%edi
    72c1:	be 02 00 00 00       	mov    $0x2,%esi
    72c6:	e8 45 18 00 00       	call   8b10 <slip_Return>
    72cb:	48 89 45 f8          	mov    %rax,-0x8(%rbp)
    72cf:	48 8b 45 f8          	mov    -0x8(%rbp),%rax
    72d3:	48 81 c4 80 00 00 00 	add    $0x80,%rsp
    72da:	5d                   	pop    %rbp
    72db:	c3                   	ret
    72dc:	0f 1f 40 00          	nopl   0x0(%rax)

00000000000072e0 <_set>:
    72e0:	55                   	push   %rbp
    72e1:	48 89 e5             	mov    %rsp,%rbp
    72e4:	48 81 ec a0 00 00 00 	sub    $0xa0,%rsp
    72eb:	48 89 7d f0          	mov    %rdi,-0x10(%rbp)
    72ef:	89 75 ec             	mov    %esi,-0x14(%rbp)
    72f2:	83 7d ec 01          	cmpl   $0x1,-0x14(%rbp)
    72f6:	0f 8c 05 00 00 00    	jl     7301 <_set+0x21>
    72fc:	e9 1f 00 00 00       	jmp    7320 <_set+0x40>
    7301:	48 8d 3d de 0e 01 00 	lea    0x10ede(%rip),%rdi        # 181e6 <_IO_stdin_used+0x1e6>
    7308:	48 8d 35 e0 0e 01 00 	lea    0x10ee0(%rip),%rsi        # 181ef <_IO_stdin_used+0x1ef>
    730f:	ba ce 00 00 00       	mov    $0xce,%edx
    7314:	48 8d 0d d4 12 01 00 	lea    0x112d4(%rip),%rcx        # 185ef <_IO_stdin_used+0x5ef>
    731b:	e8 d0 bd ff ff       	call   30f0 <__assert_fail@plt>
    7320:	c7 45 e8 01 00 00 00 	movl   $0x1,-0x18(%rbp)
    7327:	48 8b 7d f0          	mov    -0x10(%rbp),%rdi
    732b:	31 f6                	xor    %esi,%esi
    732d:	2b 75 ec             	sub    -0x14(%rbp),%esi
    7330:	e8 8b 7b 00 00       	call   eec0 <slipV_getValue>
    7335:	48 89 45 d8          	mov    %rax,-0x28(%rbp)
    7339:	89 55 e0             	mov    %edx,-0x20(%rbp)
    733c:	48 8b 7d f0          	mov    -0x10(%rbp),%rdi
    7340:	48 83 c7 08          	add    $0x8,%rdi
    7344:	8b 75 ec             	mov    -0x14(%rbp),%esi
    7347:	e8 24 67 00 00       	call   da70 <slipS_popValueNum>
    734c:	48 8b 45 d8          	mov    -0x28(%rbp),%rax
    7350:	48 89 45 d0          	mov    %rax,-0x30(%rbp)
    7354:	48 8b 45 d0          	mov    -0x30(%rbp),%rax
    7358:	48 89 45 c8          	mov    %rax,-0x38(%rbp)
    735c:	48 8b 45 c8          	mov    -0x38(%rbp),%rax
    7360:	48 8b 48 08          	mov    0x8(%rax),%rcx
    7364:	48 89 4d b8          	mov    %rcx,-0x48(%rbp)
    7368:	48 8b 40 10          	mov    0x10(%rax),%rax
    736c:	48 89 45 c0          	mov    %rax,-0x40(%rbp)
    7370:	48 8b 7d c8          	mov    -0x38(%rbp),%rdi
    7374:	e8 d7 47 00 00       	call   bb50 <slipL_forward>
    7379:	48 89 45 c8          	mov    %rax,-0x38(%rbp)
    737d:	48 8b 45 c8          	mov    -0x38(%rbp),%rax
    7381:	48 8b 48 08          	mov    0x8(%rax),%rcx
    7385:	48 89 4d a8          	mov    %rcx,-0x58(%rbp)
    7389:	48 8b 40 10          	mov    0x10(%rax),%rax
    738d:	48 89 45 b0          	mov    %rax,-0x50(%rbp)
    7391:	48 8b 7d c8          	mov    -0x38(%rbp),%rdi
    7395:	e8 b6 47 00 00       	call   bb50 <slipL_forward>
    739a:	48 89 45 c8          	mov    %rax,-0x38(%rbp)
    739e:	48 8d 05 6f 90 01 00 	lea    0x1906f(%rip),%rax        # 20414 <slip_debug_compile>
    73a5:	f6 00 01             	testb  $0x1,(%rax)
    73a8:	0f 84 0e 00 00 00    	je     73bc <_set+0xdc>
    73ae:	48 8d 3d 56 12 01 00 	lea    0x11256(%rip),%rdi        # 1860b <_IO_stdin_used+0x60b>
    73b5:	b0 00                	mov    $0x0,%al
    73b7:	e8 14 bd ff ff       	call   30d0 <printf@plt>
    73bc:	e9 00 00 00 00       	jmp    73c1 <_set+0xe1>
    73c1:	81 7d c0 00 01 00 00 	cmpl   $0x100,-0x40(%rbp)
    73c8:	0f 85 0d 00 00 00    	jne    73db <_set+0xfb>
    73ce:	81 7d b0 00 01 00 00 	cmpl   $0x100,-0x50(%rbp)
    73d5:	0f 84 2d 00 00 00    	je     7408 <_set+0x128>
    73db:	48 8b 05 0e 8c 01 00 	mov    0x18c0e(%rip),%rax        # 1fff0 <stderr@GLIBC_2.2.5>
    73e2:	48 8b 38             	mov    (%rax),%rdi
    73e5:	48 8d 35 2b 12 01 00 	lea    0x1122b(%rip),%rsi        # 18617 <_IO_stdin_used+0x617>
    73ec:	b0 00                	mov    $0x0,%al
    73ee:	e8 3d bd ff ff       	call   3130 <fprintf@plt>
    73f3:	bf ff ff ff ff       	mov    $0xffffffff,%edi
    73f8:	31 f6                	xor    %esi,%esi
    73fa:	e8 11 17 00 00       	call   8b10 <slip_Return>
    73ff:	48 89 45 f8          	mov    %rax,-0x8(%rbp)
    7403:	e9 43 01 00 00       	jmp    754b <_set+0x26b>
    7408:	48 8b 45 b8          	mov    -0x48(%rbp),%rax
    740c:	48 89 45 a0          	mov    %rax,-0x60(%rbp)
    7410:	48 8b 45 a8          	mov    -0x58(%rbp),%rax
    7414:	48 89 45 98          	mov    %rax,-0x68(%rbp)
    7418:	31 c0                	xor    %eax,%eax
    741a:	48 83 7d a0 00       	cmpq   $0x0,-0x60(%rbp)
    741f:	88 85 77 ff ff ff    	mov    %al,-0x89(%rbp)
    7425:	0f 84 0e 00 00 00    	je     7439 <_set+0x159>
    742b:	48 83 7d 98 00       	cmpq   $0x0,-0x68(%rbp)
    7430:	0f 95 c0             	setne  %al
    7433:	88 85 77 ff ff ff    	mov    %al,-0x89(%rbp)
    7439:	8a 85 77 ff ff ff    	mov    -0x89(%rbp),%al
    743f:	a8 01                	test   $0x1,%al
    7441:	0f 85 05 00 00 00    	jne    744c <_set+0x16c>
    7447:	e9 d6 00 00 00       	jmp    7522 <_set+0x242>
    744c:	48 8b 7d f0          	mov    -0x10(%rbp),%rdi
    7450:	be ff ff ff ff       	mov    $0xffffffff,%esi
    7455:	e8 96 40 00 00       	call   b4f0 <slipC_getFunc>
    745a:	48 89 45 90          	mov    %rax,-0x70(%rbp)
    745e:	c7 45 8c 00 00 00 00 	movl   $0x0,-0x74(%rbp)
    7465:	48 8b 7d f0          	mov    -0x10(%rbp),%rdi
    7469:	48 8b 75 90          	mov    -0x70(%rbp),%rsi
    746d:	48 8b 45 a0          	mov    -0x60(%rbp),%rax
    7471:	48 8b 50 08          	mov    0x8(%rax),%rdx
    7475:	8b 48 10             	mov    0x10(%rax),%ecx
    7478:	4c 8d 45 8c          	lea    -0x74(%rbp),%r8
    747c:	e8 ff 10 00 00       	call   8580 <load>
    7481:	89 45 88             	mov    %eax,-0x78(%rbp)
    7484:	48 8b 7d f0          	mov    -0x10(%rbp),%rdi
    7488:	48 8b 75 90          	mov    -0x70(%rbp),%rsi
    748c:	48 8b 45 98          	mov    -0x68(%rbp),%rax
    7490:	48 8b 50 08          	mov    0x8(%rax),%rdx
    7494:	8b 48 10             	mov    0x10(%rax),%ecx
    7497:	4c 8d 45 8c          	lea    -0x74(%rbp),%r8
    749b:	e8 e0 10 00 00       	call   8580 <load>
    74a0:	89 45 84             	mov    %eax,-0x7c(%rbp)
    74a3:	48 8b 7d 90          	mov    -0x70(%rbp),%rdi
    74a7:	8b 75 8c             	mov    -0x74(%rbp),%esi
    74aa:	e8 31 51 00 00       	call   c5e0 <slipP_popLocalVar>
    74af:	48 8b 7d 90          	mov    -0x70(%rbp),%rdi
    74b3:	be 01 00 00 00       	mov    $0x1,%esi
    74b8:	e8 f3 50 00 00       	call   c5b0 <slipP_addLocalVar>
    74bd:	89 45 80             	mov    %eax,-0x80(%rbp)
    74c0:	48 8b 45 90          	mov    -0x70(%rbp),%rax
    74c4:	48 89 85 68 ff ff ff 	mov    %rax,-0x98(%rbp)
    74cb:	8b 45 88             	mov    -0x78(%rbp),%eax
    74ce:	66 89 c1             	mov    %ax,%cx
    74d1:	8b 45 84             	mov    -0x7c(%rbp),%eax
    74d4:	0f b7 f9             	movzwl %cx,%edi
    74d7:	0f b7 f0             	movzwl %ax,%esi
    74da:	e8 91 15 00 00       	call   8a70 <slipI_move>
    74df:	48 8b bd 68 ff ff ff 	mov    -0x98(%rbp),%rdi
    74e6:	89 85 78 ff ff ff    	mov    %eax,-0x88(%rbp)
    74ec:	8b b5 78 ff ff ff    	mov    -0x88(%rbp),%esi
    74f2:	e8 29 4d 00 00       	call   c220 <slipP_addInstruction>
    74f7:	48 8b 7d f0          	mov    -0x10(%rbp),%rdi
    74fb:	8b 75 80             	mov    -0x80(%rbp),%esi
    74fe:	e8 dd 7c 00 00       	call   f1e0 <slipV_pushExpr>
    7503:	48 8b 7d a0          	mov    -0x60(%rbp),%rdi
    7507:	e8 44 46 00 00       	call   bb50 <slipL_forward>
    750c:	48 89 45 a0          	mov    %rax,-0x60(%rbp)
    7510:	48 8b 7d 98          	mov    -0x68(%rbp),%rdi
    7514:	e8 37 46 00 00       	call   bb50 <slipL_forward>
    7519:	48 89 45 98          	mov    %rax,-0x68(%rbp)
    751d:	e9 f6 fe ff ff       	jmp    7418 <_set+0x138>
    7522:	48 8d 05 eb 8e 01 00 	lea    0x18eeb(%rip),%rax        # 20414 <slip_debug_compile>
    7529:	f6 00 01             	testb  $0x1,(%rax)
    752c:	0f 84 09 00 00 00    	je     753b <_set+0x25b>
    7532:	48 8b 7d f0          	mov    -0x10(%rbp),%rdi
    7536:	e8 85 40 00 00       	call   b5c0 <slipC_printStack>
    753b:	be 02 00 00 00       	mov    $0x2,%esi
    7540:	89 f7                	mov    %esi,%edi
    7542:	e8 c9 15 00 00       	call   8b10 <slip_Return>
    7547:	48 89 45 f8          	mov    %rax,-0x8(%rbp)
    754b:	48 8b 45 f8          	mov    -0x8(%rbp),%rax
    754f:	48 81 c4 a0 00 00 00 	add    $0xa0,%rsp
    7556:	5d                   	pop    %rbp
    7557:	c3                   	ret
    7558:	0f 1f 84 00 00 00 00 	nopl   0x0(%rax,%rax,1)
    755f:	00 

0000000000007560 <_eq>:
    7560:	55                   	push   %rbp
    7561:	48 89 e5             	mov    %rsp,%rbp
    7564:	48 81 ec 80 00 00 00 	sub    $0x80,%rsp
    756b:	48 89 7d f0          	mov    %rdi,-0x10(%rbp)
    756f:	89 75 ec             	mov    %esi,-0x14(%rbp)
    7572:	83 7d ec 01          	cmpl   $0x1,-0x14(%rbp)
    7576:	0f 8c 05 00 00 00    	jl     7581 <_eq+0x21>
    757c:	e9 1f 00 00 00       	jmp    75a0 <_eq+0x40>
    7581:	48 8d 3d 5e 0c 01 00 	lea    0x10c5e(%rip),%rdi        # 181e6 <_IO_stdin_used+0x1e6>
    7588:	48 8d 35 60 0c 01 00 	lea    0x10c60(%rip),%rsi        # 181ef <_IO_stdin_used+0x1ef>
    758f:	ba ac 00 00 00       	mov    $0xac,%edx
    7594:	48 8d 0d 8d 10 01 00 	lea    0x1108d(%rip),%rcx        # 18628 <_IO_stdin_used+0x628>
    759b:	e8 50 bb ff ff       	call   30f0 <__assert_fail@plt>
    75a0:	c7 45 e8 01 00 00 00 	movl   $0x1,-0x18(%rbp)
    75a7:	48 8b 7d f0          	mov    -0x10(%rbp),%rdi
    75ab:	31 f6                	xor    %esi,%esi
    75ad:	2b 75 ec             	sub    -0x14(%rbp),%esi
    75b0:	e8 0b 79 00 00       	call   eec0 <slipV_getValue>
    75b5:	48 89 45 d8          	mov    %rax,-0x28(%rbp)
    75b9:	89 55 e0             	mov    %edx,-0x20(%rbp)
    75bc:	48 8b 7d f0          	mov    -0x10(%rbp),%rdi
    75c0:	48 83 c7 08          	add    $0x8,%rdi
    75c4:	8b 75 ec             	mov    -0x14(%rbp),%esi
    75c7:	e8 a4 64 00 00       	call   da70 <slipS_popValueNum>
    75cc:	48 8b 45 d8          	mov    -0x28(%rbp),%rax
    75d0:	48 89 45 d0          	mov    %rax,-0x30(%rbp)
    75d4:	48 8b 45 d0          	mov    -0x30(%rbp),%rax
    75d8:	48 89 45 c8          	mov    %rax,-0x38(%rbp)
    75dc:	48 8b 45 c8          	mov    -0x38(%rbp),%rax
    75e0:	48 8b 48 08          	mov    0x8(%rax),%rcx
    75e4:	48 89 4d b8          	mov    %rcx,-0x48(%rbp)
    75e8:	48 8b 40 10          	mov    0x10(%rax),%rax
    75ec:	48 89 45 c0          	mov    %rax,-0x40(%rbp)
    75f0:	48 8b 7d c8          	mov    -0x38(%rbp),%rdi
    75f4:	e8 57 45 00 00       	call   bb50 <slipL_forward>
    75f9:	48 89 45 c8          	mov    %rax,-0x38(%rbp)
    75fd:	48 8b 45 c8          	mov    -0x38(%rbp),%rax
    7601:	48 8b 48 08          	mov    0x8(%rax),%rcx
    7605:	48 89 4d a8          	mov    %rcx,-0x58(%rbp)
    7609:	48 8b 40 10          	mov    0x10(%rax),%rax
    760d:	48 89 45 b0          	mov    %rax,-0x50(%rbp)
    7611:	48 8b 7d c8          	mov    -0x38(%rbp),%rdi
    7615:	e8 36 45 00 00       	call   bb50 <slipL_forward>
    761a:	48 89 45 c8          	mov    %rax,-0x38(%rbp)
    761e:	48 8d 05 ef 8d 01 00 	lea    0x18def(%rip),%rax        # 20414 <slip_debug_compile>
    7625:	f6 00 01             	testb  $0x1,(%rax)
    7628:	0f 84 15 00 00 00    	je     7643 <_eq+0xe3>
    762e:	48 8d 3d 04 0f 01 00 	lea    0x10f04(%rip),%rdi        # 18539 <_IO_stdin_used+0x539>
    7635:	48 8d 35 07 10 01 00 	lea    0x11007(%rip),%rsi        # 18643 <_IO_stdin_used+0x643>
    763c:	b0 00                	mov    $0x0,%al
    763e:	e8 8d ba ff ff       	call   30d0 <printf@plt>
    7643:	e9 00 00 00 00       	jmp    7648 <_eq+0xe8>
    7648:	48 8b 7d f0          	mov    -0x10(%rbp),%rdi
    764c:	be ff ff ff ff       	mov    $0xffffffff,%esi
    7651:	e8 9a 3e 00 00       	call   b4f0 <slipC_getFunc>
    7656:	48 89 45 a0          	mov    %rax,-0x60(%rbp)
    765a:	c7 45 9c 00 00 00 00 	movl   $0x0,-0x64(%rbp)
    7661:	48 8b 7d f0          	mov    -0x10(%rbp),%rdi
    7665:	48 8b 75 a0          	mov    -0x60(%rbp),%rsi
    7669:	48 8b 55 b8          	mov    -0x48(%rbp),%rdx
    766d:	8b 4d c0             	mov    -0x40(%rbp),%ecx
    7670:	4c 8d 45 9c          	lea    -0x64(%rbp),%r8
    7674:	e8 07 0f 00 00       	call   8580 <load>
    7679:	89 45 98             	mov    %eax,-0x68(%rbp)
    767c:	48 8b 7d f0          	mov    -0x10(%rbp),%rdi
    7680:	48 8b 75 a0          	mov    -0x60(%rbp),%rsi
    7684:	48 8b 55 a8          	mov    -0x58(%rbp),%rdx
    7688:	8b 4d b0             	mov    -0x50(%rbp),%ecx
    768b:	4c 8d 45 9c          	lea    -0x64(%rbp),%r8
    768f:	e8 ec 0e 00 00       	call   8580 <load>
    7694:	89 45 94             	mov    %eax,-0x6c(%rbp)
    7697:	48 8b 7d a0          	mov    -0x60(%rbp),%rdi
    769b:	8b 75 9c             	mov    -0x64(%rbp),%esi
    769e:	e8 3d 4f 00 00       	call   c5e0 <slipP_popLocalVar>
    76a3:	48 8b 7d a0          	mov    -0x60(%rbp),%rdi
    76a7:	be 01 00 00 00       	mov    $0x1,%esi
    76ac:	e8 ff 4e 00 00       	call   c5b0 <slipP_addLocalVar>
    76b1:	89 45 90             	mov    %eax,-0x70(%rbp)
    76b4:	48 8b 45 a0          	mov    -0x60(%rbp),%rax
    76b8:	48 89 45 80          	mov    %rax,-0x80(%rbp)
    76bc:	8b 45 90             	mov    -0x70(%rbp),%eax
    76bf:	66 89 c2             	mov    %ax,%dx
    76c2:	8b 45 98             	mov    -0x68(%rbp),%eax
    76c5:	88 c1                	mov    %al,%cl
    76c7:	8b 45 94             	mov    -0x6c(%rbp),%eax
    76ca:	0f b7 fa             	movzwl %dx,%edi
    76cd:	0f b6 f1             	movzbl %cl,%esi
    76d0:	0f b6 d0             	movzbl %al,%edx
    76d3:	e8 58 1a 00 00       	call   9130 <slipI_eq>
    76d8:	48 8b 7d 80          	mov    -0x80(%rbp),%rdi
    76dc:	89 45 88             	mov    %eax,-0x78(%rbp)
    76df:	8b 75 88             	mov    -0x78(%rbp),%esi
    76e2:	e8 39 4b 00 00       	call   c220 <slipP_addInstruction>
    76e7:	48 8b 7d f0          	mov    -0x10(%rbp),%rdi
    76eb:	8b 75 90             	mov    -0x70(%rbp),%esi
    76ee:	e8 ed 7a 00 00       	call   f1e0 <slipV_pushExpr>
    76f3:	48 8d 05 1a 8d 01 00 	lea    0x18d1a(%rip),%rax        # 20414 <slip_debug_compile>
    76fa:	f6 00 01             	testb  $0x1,(%rax)
    76fd:	0f 84 09 00 00 00    	je     770c <_eq+0x1ac>
    7703:	48 8b 7d f0          	mov    -0x10(%rbp),%rdi
    7707:	e8 b4 3e 00 00       	call   b5c0 <slipC_printStack>
    770c:	bf 01 00 00 00       	mov    $0x1,%edi
    7711:	be 02 00 00 00       	mov    $0x2,%esi
    7716:	e8 f5 13 00 00       	call   8b10 <slip_Return>
    771b:	48 89 45 f8          	mov    %rax,-0x8(%rbp)
    771f:	48 8b 45 f8          	mov    -0x8(%rbp),%rax
    7723:	48 81 c4 80 00 00 00 	add    $0x80,%rsp
    772a:	5d                   	pop    %rbp
    772b:	c3                   	ret
    772c:	0f 1f 40 00          	nopl   0x0(%rax)

0000000000007730 <_le>:
    7730:	55                   	push   %rbp
    7731:	48 89 e5             	mov    %rsp,%rbp
    7734:	48 81 ec 80 00 00 00 	sub    $0x80,%rsp
    773b:	48 89 7d f0          	mov    %rdi,-0x10(%rbp)
    773f:	89 75 ec             	mov    %esi,-0x14(%rbp)
    7742:	83 7d ec 01          	cmpl   $0x1,-0x14(%rbp)
    7746:	0f 8c 05 00 00 00    	jl     7751 <_le+0x21>
    774c:	e9 1f 00 00 00       	jmp    7770 <_le+0x40>
    7751:	48 8d 3d 8e 0a 01 00 	lea    0x10a8e(%rip),%rdi        # 181e6 <_IO_stdin_used+0x1e6>
    7758:	48 8d 35 90 0a 01 00 	lea    0x10a90(%rip),%rsi        # 181ef <_IO_stdin_used+0x1ef>
    775f:	ba af 00 00 00       	mov    $0xaf,%edx
    7764:	48 8d 0d dc 0e 01 00 	lea    0x10edc(%rip),%rcx        # 18647 <_IO_stdin_used+0x647>
    776b:	e8 80 b9 ff ff       	call   30f0 <__assert_fail@plt>
    7770:	c7 45 e8 01 00 00 00 	movl   $0x1,-0x18(%rbp)
    7777:	48 8b 7d f0          	mov    -0x10(%rbp),%rdi
    777b:	31 f6                	xor    %esi,%esi
    777d:	2b 75 ec             	sub    -0x14(%rbp),%esi
    7780:	e8 3b 77 00 00       	call   eec0 <slipV_getValue>
    7785:	48 89 45 d8          	mov    %rax,-0x28(%rbp)
    7789:	89 55 e0             	mov    %edx,-0x20(%rbp)
    778c:	48 8b 7d f0          	mov    -0x10(%rbp),%rdi
    7790:	48 83 c7 08          	add    $0x8,%rdi
    7794:	8b 75 ec             	mov    -0x14(%rbp),%esi
    7797:	e8 d4 62 00 00       	call   da70 <slipS_popValueNum>
    779c:	48 8b 45 d8          	mov    -0x28(%rbp),%rax
    77a0:	48 89 45 d0          	mov    %rax,-0x30(%rbp)
    77a4:	48 8b 45 d0          	mov    -0x30(%rbp),%rax
    77a8:	48 89 45 c8          	mov    %rax,-0x38(%rbp)
    77ac:	48 8b 45 c8          	mov    -0x38(%rbp),%rax
    77b0:	48 8b 48 08          	mov    0x8(%rax),%rcx
    77b4:	48 89 4d b8          	mov    %rcx,-0x48(%rbp)
    77b8:	48 8b 40 10          	mov    0x10(%rax),%rax
    77bc:	48 89 45 c0          	mov    %rax,-0x40(%rbp)
    77c0:	48 8b 7d c8          	mov    -0x38(%rbp),%rdi
    77c4:	e8 87 43 00 00       	call   bb50 <slipL_forward>
    77c9:	48 89 45 c8          	mov    %rax,-0x38(%rbp)
    77cd:	48 8b 45 c8          	mov    -0x38(%rbp),%rax
    77d1:	48 8b 48 08          	mov    0x8(%rax),%rcx
    77d5:	48 89 4d a8          	mov    %rcx,-0x58(%rbp)
    77d9:	48 8b 40 10          	mov    0x10(%rax),%rax
    77dd:	48 89 45 b0          	mov    %rax,-0x50(%rbp)
    77e1:	48 8b 7d c8          	mov    -0x38(%rbp),%rdi
    77e5:	e8 66 43 00 00       	call   bb50 <slipL_forward>
    77ea:	48 89 45 c8          	mov    %rax,-0x38(%rbp)
    77ee:	48 8d 05 1f 8c 01 00 	lea    0x18c1f(%rip),%rax        # 20414 <slip_debug_compile>
    77f5:	f6 00 01             	testb  $0x1,(%rax)
    77f8:	0f 84 15 00 00 00    	je     7813 <_le+0xe3>
    77fe:	48 8d 3d 34 0d 01 00 	lea    0x10d34(%rip),%rdi        # 18539 <_IO_stdin_used+0x539>
    7805:	48 8d 35 56 0e 01 00 	lea    0x10e56(%rip),%rsi        # 18662 <_IO_stdin_used+0x662>
    780c:	b0 00                	mov    $0x0,%al
    780e:	e8 bd b8 ff ff       	call   30d0 <printf@plt>
    7813:	e9 00 00 00 00       	jmp    7818 <_le+0xe8>
    7818:	48 8b 7d f0          	mov    -0x10(%rbp),%rdi
    781c:	be ff ff ff ff       	mov    $0xffffffff,%esi
    7821:	e8 ca 3c 00 00       	call   b4f0 <slipC_getFunc>
    7826:	48 89 45 a0          	mov    %rax,-0x60(%rbp)
    782a:	c7 45 9c 00 00 00 00 	movl   $0x0,-0x64(%rbp)
    7831:	48 8b 7d f0          	mov    -0x10(%rbp),%rdi
    7835:	48 8b 75 a0          	mov    -0x60(%rbp),%rsi
    7839:	48 8b 55 b8          	mov    -0x48(%rbp),%rdx
    783d:	8b 4d c0             	mov    -0x40(%rbp),%ecx
    7840:	4c 8d 45 9c          	lea    -0x64(%rbp),%r8
    7844:	e8 37 0d 00 00       	call   8580 <load>
    7849:	89 45 98             	mov    %eax,-0x68(%rbp)
    784c:	48 8b 7d f0          	mov    -0x10(%rbp),%rdi
    7850:	48 8b 75 a0          	mov    -0x60(%rbp),%rsi
    7854:	48 8b 55 a8          	mov    -0x58(%rbp),%rdx
    7858:	8b 4d b0             	mov    -0x50(%rbp),%ecx
    785b:	4c 8d 45 9c          	lea    -0x64(%rbp),%r8
    785f:	e8 1c 0d 00 00       	call   8580 <load>
    7864:	89 45 94             	mov    %eax,-0x6c(%rbp)
    7867:	48 8b 7d a0          	mov    -0x60(%rbp),%rdi
    786b:	8b 75 9c             	mov    -0x64(%rbp),%esi
    786e:	e8 6d 4d 00 00       	call   c5e0 <slipP_popLocalVar>
    7873:	48 8b 7d a0          	mov    -0x60(%rbp),%rdi
    7877:	be 01 00 00 00       	mov    $0x1,%esi
    787c:	e8 2f 4d 00 00       	call   c5b0 <slipP_addLocalVar>
    7881:	89 45 90             	mov    %eax,-0x70(%rbp)
    7884:	48 8b 45 a0          	mov    -0x60(%rbp),%rax
    7888:	48 89 45 80          	mov    %rax,-0x80(%rbp)
    788c:	8b 45 90             	mov    -0x70(%rbp),%eax
    788f:	66 89 c2             	mov    %ax,%dx
    7892:	8b 45 98             	mov    -0x68(%rbp),%eax
    7895:	88 c1                	mov    %al,%cl
    7897:	8b 45 94             	mov    -0x6c(%rbp),%eax
    789a:	0f b7 fa             	movzwl %dx,%edi
    789d:	0f b6 f1             	movzbl %cl,%esi
    78a0:	0f b6 d0             	movzbl %al,%edx
    78a3:	e8 d8 18 00 00       	call   9180 <slipI_le>
    78a8:	48 8b 7d 80          	mov    -0x80(%rbp),%rdi
    78ac:	89 45 88             	mov    %eax,-0x78(%rbp)
    78af:	8b 75 88             	mov    -0x78(%rbp),%esi
    78b2:	e8 69 49 00 00       	call   c220 <slipP_addInstruction>
    78b7:	48 8b 7d f0          	mov    -0x10(%rbp),%rdi
    78bb:	8b 75 90             	mov    -0x70(%rbp),%esi
    78be:	e8 1d 79 00 00       	call   f1e0 <slipV_pushExpr>
    78c3:	48 8d 05 4a 8b 01 00 	lea    0x18b4a(%rip),%rax        # 20414 <slip_debug_compile>
    78ca:	f6 00 01             	testb  $0x1,(%rax)
    78cd:	0f 84 09 00 00 00    	je     78dc <_le+0x1ac>
    78d3:	48 8b 7d f0          	mov    -0x10(%rbp),%rdi
    78d7:	e8 e4 3c 00 00       	call   b5c0 <slipC_printStack>
    78dc:	bf 01 00 00 00       	mov    $0x1,%edi
    78e1:	be 02 00 00 00       	mov    $0x2,%esi
    78e6:	e8 25 12 00 00       	call   8b10 <slip_Return>
    78eb:	48 89 45 f8          	mov    %rax,-0x8(%rbp)
    78ef:	48 8b 45 f8          	mov    -0x8(%rbp),%rax
    78f3:	48 81 c4 80 00 00 00 	add    $0x80,%rsp
    78fa:	5d                   	pop    %rbp
    78fb:	c3                   	ret
    78fc:	0f 1f 40 00          	nopl   0x0(%rax)

0000000000007900 <_lt>:
    7900:	55                   	push   %rbp
    7901:	48 89 e5             	mov    %rsp,%rbp
    7904:	48 81 ec 80 00 00 00 	sub    $0x80,%rsp
    790b:	48 89 7d f0          	mov    %rdi,-0x10(%rbp)
    790f:	89 75 ec             	mov    %esi,-0x14(%rbp)
    7912:	83 7d ec 01          	cmpl   $0x1,-0x14(%rbp)
    7916:	0f 8c 05 00 00 00    	jl     7921 <_lt+0x21>
    791c:	e9 1f 00 00 00       	jmp    7940 <_lt+0x40>
    7921:	48 8d 3d be 08 01 00 	lea    0x108be(%rip),%rdi        # 181e6 <_IO_stdin_used+0x1e6>
    7928:	48 8d 35 c0 08 01 00 	lea    0x108c0(%rip),%rsi        # 181ef <_IO_stdin_used+0x1ef>
    792f:	ba ae 00 00 00       	mov    $0xae,%edx
    7934:	48 8d 0d 2b 0d 01 00 	lea    0x10d2b(%rip),%rcx        # 18666 <_IO_stdin_used+0x666>
    793b:	e8 b0 b7 ff ff       	call   30f0 <__assert_fail@plt>
    7940:	c7 45 e8 01 00 00 00 	movl   $0x1,-0x18(%rbp)
    7947:	48 8b 7d f0          	mov    -0x10(%rbp),%rdi
    794b:	31 f6                	xor    %esi,%esi
    794d:	2b 75 ec             	sub    -0x14(%rbp),%esi
    7950:	e8 6b 75 00 00       	call   eec0 <slipV_getValue>
    7955:	48 89 45 d8          	mov    %rax,-0x28(%rbp)
    7959:	89 55 e0             	mov    %edx,-0x20(%rbp)
    795c:	48 8b 7d f0          	mov    -0x10(%rbp),%rdi
    7960:	48 83 c7 08          	add    $0x8,%rdi
    7964:	8b 75 ec             	mov    -0x14(%rbp),%esi
    7967:	e8 04 61 00 00       	call   da70 <slipS_popValueNum>
    796c:	48 8b 45 d8          	mov    -0x28(%rbp),%rax
    7970:	48 89 45 d0          	mov    %rax,-0x30(%rbp)
    7974:	48 8b 45 d0          	mov    -0x30(%rbp),%rax
    7978:	48 89 45 c8          	mov    %rax,-0x38(%rbp)
    797c:	48 8b 45 c8          	mov    -0x38(%rbp),%rax
    7980:	48 8b 48 08          	mov    0x8(%rax),%rcx
    7984:	48 89 4d b8          	mov    %rcx,-0x48(%rbp)
    7988:	48 8b 40 10          	mov    0x10(%rax),%rax
    798c:	48 89 45 c0          	mov    %rax,-0x40(%rbp)
    7990:	48 8b 7d c8          	mov    -0x38(%rbp),%rdi
    7994:	e8 b7 41 00 00       	call   bb50 <slipL_forward>
    7999:	48 89 45 c8          	mov    %rax,-0x38(%rbp)
    799d:	48 8b 45 c8          	mov    -0x38(%rbp),%rax
    79a1:	48 8b 48 08          	mov    0x8(%rax),%rcx
    79a5:	48 89 4d a8          	mov    %rcx,-0x58(%rbp)
    79a9:	48 8b 40 10          	mov    0x10(%rax),%rax
    79ad:	48 89 45 b0          	mov    %rax,-0x50(%rbp)
    79b1:	48 8b 7d c8          	mov    -0x38(%rbp),%rdi
    79b5:	e8 96 41 00 00       	call   bb50 <slipL_forward>
    79ba:	48 89 45 c8          	mov    %rax,-0x38(%rbp)
    79be:	48 8d 05 4f 8a 01 00 	lea    0x18a4f(%rip),%rax        # 20414 <slip_debug_compile>
    79c5:	f6 00 01             	testb  $0x1,(%rax)
    79c8:	0f 84 15 00 00 00    	je     79e3 <_lt+0xe3>
    79ce:	48 8d 3d 64 0b 01 00 	lea    0x10b64(%rip),%rdi        # 18539 <_IO_stdin_used+0x539>
    79d5:	48 8d 35 a5 0c 01 00 	lea    0x10ca5(%rip),%rsi        # 18681 <_IO_stdin_used+0x681>
    79dc:	b0 00                	mov    $0x0,%al
    79de:	e8 ed b6 ff ff       	call   30d0 <printf@plt>
    79e3:	e9 00 00 00 00       	jmp    79e8 <_lt+0xe8>
    79e8:	48 8b 7d f0          	mov    -0x10(%rbp),%rdi
    79ec:	be ff ff ff ff       	mov    $0xffffffff,%esi
    79f1:	e8 fa 3a 00 00       	call   b4f0 <slipC_getFunc>
    79f6:	48 89 45 a0          	mov    %rax,-0x60(%rbp)
    79fa:	c7 45 9c 00 00 00 00 	movl   $0x0,-0x64(%rbp)
    7a01:	48 8b 7d f0          	mov    -0x10(%rbp),%rdi
    7a05:	48 8b 75 a0          	mov    -0x60(%rbp),%rsi
    7a09:	48 8b 55 b8          	mov    -0x48(%rbp),%rdx
    7a0d:	8b 4d c0             	mov    -0x40(%rbp),%ecx
    7a10:	4c 8d 45 9c          	lea    -0x64(%rbp),%r8
    7a14:	e8 67 0b 00 00       	call   8580 <load>
    7a19:	89 45 98             	mov    %eax,-0x68(%rbp)
    7a1c:	48 8b 7d f0          	mov    -0x10(%rbp),%rdi
    7a20:	48 8b 75 a0          	mov    -0x60(%rbp),%rsi
    7a24:	48 8b 55 a8          	mov    -0x58(%rbp),%rdx
    7a28:	8b 4d b0             	mov    -0x50(%rbp),%ecx
    7a2b:	4c 8d 45 9c          	lea    -0x64(%rbp),%r8
    7a2f:	e8 4c 0b 00 00       	call   8580 <load>
    7a34:	89 45 94             	mov    %eax,-0x6c(%rbp)
    7a37:	48 8b 7d a0          	mov    -0x60(%rbp),%rdi
    7a3b:	8b 75 9c             	mov    -0x64(%rbp),%esi
    7a3e:	e8 9d 4b 00 00       	call   c5e0 <slipP_popLocalVar>
    7a43:	48 8b 7d a0          	mov    -0x60(%rbp),%rdi
    7a47:	be 01 00 00 00       	mov    $0x1,%esi
    7a4c:	e8 5f 4b 00 00       	call   c5b0 <slipP_addLocalVar>
    7a51:	89 45 90             	mov    %eax,-0x70(%rbp)
    7a54:	48 8b 45 a0          	mov    -0x60(%rbp),%rax
    7a58:	48 89 45 80          	mov    %rax,-0x80(%rbp)
    7a5c:	8b 45 90             	mov    -0x70(%rbp),%eax
    7a5f:	66 89 c2             	mov    %ax,%dx
    7a62:	8b 45 98             	mov    -0x68(%rbp),%eax
    7a65:	88 c1                	mov    %al,%cl
    7a67:	8b 45 94             	mov    -0x6c(%rbp),%eax
    7a6a:	0f b7 fa             	movzwl %dx,%edi
    7a6d:	0f b6 f1             	movzbl %cl,%esi
    7a70:	0f b6 d0             	movzbl %al,%edx
    7a73:	e8 58 17 00 00       	call   91d0 <slipI_lt>
    7a78:	48 8b 7d 80          	mov    -0x80(%rbp),%rdi
    7a7c:	89 45 88             	mov    %eax,-0x78(%rbp)
    7a7f:	8b 75 88             	mov    -0x78(%rbp),%esi
    7a82:	e8 99 47 00 00       	call   c220 <slipP_addInstruction>
    7a87:	48 8b 7d f0          	mov    -0x10(%rbp),%rdi
    7a8b:	8b 75 90             	mov    -0x70(%rbp),%esi
    7a8e:	e8 4d 77 00 00       	call   f1e0 <slipV_pushExpr>
    7a93:	48 8d 05 7a 89 01 00 	lea    0x1897a(%rip),%rax        # 20414 <slip_debug_compile>
    7a9a:	f6 00 01             	testb  $0x1,(%rax)
    7a9d:	0f 84 09 00 00 00    	je     7aac <_lt+0x1ac>
    7aa3:	48 8b 7d f0          	mov    -0x10(%rbp),%rdi
    7aa7:	e8 14 3b 00 00       	call   b5c0 <slipC_printStack>
    7aac:	bf 01 00 00 00       	mov    $0x1,%edi
    7ab1:	be 02 00 00 00       	mov    $0x2,%esi
    7ab6:	e8 55 10 00 00       	call   8b10 <slip_Return>
    7abb:	48 89 45 f8          	mov    %rax,-0x8(%rbp)
    7abf:	48 8b 45 f8          	mov    -0x8(%rbp),%rax
    7ac3:	48 81 c4 80 00 00 00 	add    $0x80,%rsp
    7aca:	5d                   	pop    %rbp
    7acb:	c3                   	ret
    7acc:	0f 1f 40 00          	nopl   0x0(%rax)

0000000000007ad0 <_gt>:
    7ad0:	55                   	push   %rbp
    7ad1:	48 89 e5             	mov    %rsp,%rbp
    7ad4:	48 81 ec 80 00 00 00 	sub    $0x80,%rsp
    7adb:	48 89 7d f0          	mov    %rdi,-0x10(%rbp)
    7adf:	89 75 ec             	mov    %esi,-0x14(%rbp)
    7ae2:	83 7d ec 01          	cmpl   $0x1,-0x14(%rbp)
    7ae6:	0f 8c 05 00 00 00    	jl     7af1 <_gt+0x21>
    7aec:	e9 1f 00 00 00       	jmp    7b10 <_gt+0x40>
    7af1:	48 8d 3d ee 06 01 00 	lea    0x106ee(%rip),%rdi        # 181e6 <_IO_stdin_used+0x1e6>
    7af8:	48 8d 35 f0 06 01 00 	lea    0x106f0(%rip),%rsi        # 181ef <_IO_stdin_used+0x1ef>
    7aff:	ba b0 00 00 00       	mov    $0xb0,%edx
    7b04:	48 8d 0d 7a 0b 01 00 	lea    0x10b7a(%rip),%rcx        # 18685 <_IO_stdin_used+0x685>
    7b0b:	e8 e0 b5 ff ff       	call   30f0 <__assert_fail@plt>
    7b10:	c7 45 e8 01 00 00 00 	movl   $0x1,-0x18(%rbp)
    7b17:	48 8b 7d f0          	mov    -0x10(%rbp),%rdi
    7b1b:	31 f6                	xor    %esi,%esi
    7b1d:	2b 75 ec             	sub    -0x14(%rbp),%esi
    7b20:	e8 9b 73 00 00       	call   eec0 <slipV_getValue>
    7b25:	48 89 45 d8          	mov    %rax,-0x28(%rbp)
    7b29:	89 55 e0             	mov    %edx,-0x20(%rbp)
    7b2c:	48 8b 7d f0          	mov    -0x10(%rbp),%rdi
    7b30:	48 83 c7 08          	add    $0x8,%rdi
    7b34:	8b 75 ec             	mov    -0x14(%rbp),%esi
    7b37:	e8 34 5f 00 00       	call   da70 <slipS_popValueNum>
    7b3c:	48 8b 45 d8          	mov    -0x28(%rbp),%rax
    7b40:	48 89 45 d0          	mov    %rax,-0x30(%rbp)
    7b44:	48 8b 45 d0          	mov    -0x30(%rbp),%rax
    7b48:	48 89 45 c8          	mov    %rax,-0x38(%rbp)
    7b4c:	48 8b 45 c8          	mov    -0x38(%rbp),%rax
    7b50:	48 8b 48 08          	mov    0x8(%rax),%rcx
    7b54:	48 89 4d b8          	mov    %rcx,-0x48(%rbp)
    7b58:	48 8b 40 10          	mov    0x10(%rax),%rax
    7b5c:	48 89 45 c0          	mov    %rax,-0x40(%rbp)
